(lp1
(I100
F0
I1000
tp2
a(I101
F0
I1000
tp3
a(I102
F0
I1000
tp4
a(I103
F0
I1000
tp5
a(I104
F0
I1000
tp6
a(I105
F0
I1000
tp7
a(I106
F0
I1000
tp8
a(I107
F0
I1000
tp9
a(I108
F0
I1000
tp10
a(I109
F0
I1000
tp11
a(I110
F0
I1000
tp12
a(I111
F0
I1000
tp13
a(I112
F0
I1000
tp14
a(I113
F0
I1000
tp15
a(I114
F0
I1000
tp16
a(I115
F0
I1000
tp17
a(I116
F0
I1000
tp18
a(I117
F0
I1000
tp19
a(I118
F0
I1000
tp20
a(I119
F0
I1000
tp21
a(I120
F0
I1000
tp22
a(I121
F0
I1000
tp23
a(I122
F0
I1000
tp24
a(I123
F0
I1000
tp25
a(I124
F0
I1000
tp26
a(I125
F0
I1000
tp27
a(I126
F0
I1000
tp28
a(I127
F0
I1000
tp29
a(I128
F0
I1000
tp30
a(I129
F0
I1000
tp31
a(I130
F0
I1000
tp32
a(I131
F0
I1000
tp33
a(I132
F0
I1000
tp34
a(I133
F0
I1000
tp35
a(I134
F0
I1000
tp36
a(I135
F0
I1000
tp37
a(I136
F0
I1000
tp38
a(I137
F0
I1000
tp39
a(I138
F0
I1000
tp40
a(I139
F0
I1000
tp41
a(I140
F0
I1000
tp42
a(I141
F0
I1000
tp43
a(I142
F0
I1000
tp44
a(I143
F0
I1000
tp45
a(I144
F0
I1000
tp46
a(I145
F0
I1000
tp47
a(I146
F0
I1000
tp48
a(I147
F0
I1000
tp49
a(I148
F0
I1000
tp50
a(I149
F0
I1000
tp51
a(I150
F0
I1000
tp52
a(I151
F0
I1000
tp53
a(I152
F0
I1000
tp54
a(I153
F0
I1000
tp55
a(I154
F0
I1000
tp56
a(I155
F0
I1000
tp57
a(I156
F0
I1000
tp58
a(I157
F0
I1000
tp59
a(I158
F0
I1000
tp60
a(I159
F0
I1000
tp61
a(I160
F0
I1000
tp62
a(I161
F0
I1000
tp63
a(I162
F0
I1000
tp64
a(I163
F0
I1000
tp65
a(I164
F0
I1000
tp66
a(I165
F0.001
I1000
tp67
a(I166
F0
I1000
tp68
a(I167
F0.001
I1000
tp69
a(I168
F0
I1000
tp70
a(I169
F0
I1000
tp71
a(I170
F0.001
I1000
tp72
a(I171
F0
I1000
tp73
a(I172
F0
I1000
tp74
a(I173
F0
I1000
tp75
a(I174
F0.001
I1000
tp76
a(I175
F0.002
I1000
tp77
a(I176
F0.001
I1000
tp78
a(I177
F0
I1000
tp79
a(I178
F0
I1000
tp80
a(I179
F0
I1000
tp81
a(I180
F0.001
I1000
tp82
a(I181
F0.001
I1000
tp83
a(I182
F0
I1000
tp84
a(I183
F0.002
I1000
tp85
a(I184
F0.002
I1000
tp86
a(I185
F0.0060000000000000001
I1000
tp87
a(I186
F0.002
I1000
tp88
a(I187
F0.001
I1000
tp89
a(I188
F0.001
I1000
tp90
a(I189
F0.0030000000000000001
I1000
tp91
a(I190
F0
I1000
tp92
a(I191
F0.002
I1000
tp93
a(I192
F0.0030000000000000001
I1000
tp94
a(I193
F0.002
I1000
tp95
a(I194
F0
I1000
tp96
a(I195
F0.002
I1000
tp97
a(I196
F0.002
I1000
tp98
a(I197
F0.0050000000000000001
I1000
tp99
a(I198
F0.01
I1000
tp100
a(I199
F0.0050000000000000001
I1000
tp101
a(I200
F0.0050000000000000001
I1000
tp102
a(I201
F0.0030000000000000001
I1000
tp103
a(I202
F0.001
I1000
tp104
a(I203
F0.0070000000000000001
I1000
tp105
a(I204
F0.0030000000000000001
I1000
tp106
a(I205
F0.0080000000000000002
I1000
tp107
a(I206
F0.0089999999999999993
I1000
tp108
a(I207
F0.0040000000000000001
I1000
tp109
a(I208
F0.0060000000000000001
I1000
tp110
a(I209
F0.0089999999999999993
I1000
tp111
a(I210
F0.012999999999999999
I1000
tp112
a(I211
F0.010999999999999999
I1000
tp113
a(I212
F0.0080000000000000002
I1000
tp114
a(I213
F0.012
I1000
tp115
a(I214
F0.014999999999999999
I1000
tp116
a(I215
F0.019
I1000
tp117
a(I216
F0.012
I1000
tp118
a(I217
F0.016
I1000
tp119
a(I218
F0.023
I1000
tp120
a(I219
F0.016
I1000
tp121
a(I220
F0.017000000000000001
I1000
tp122
a(I221
F0.023
I1000
tp123
a(I222
F0.021000000000000001
I1000
tp124
a(I223
F0.02
I1000
tp125
a(I224
F0.012999999999999999
I1000
tp126
a(I225
F0.02
I1000
tp127
a(I226
F0.033000000000000002
I1000
tp128
a(I227
F0.037999999999999999
I1000
tp129
a(I228
F0.032000000000000001
I1000
tp130
a(I229
F0.029999999999999999
I1000
tp131
a(I230
F0.040000000000000001
I1000
tp132
a(I231
F0.032000000000000001
I1000
tp133
a(I232
F0.035999999999999997
I1000
tp134
a(I233
F0.042000000000000003
I1000
tp135
a(I234
F0.039
I1000
tp136
a(I235
F0.049000000000000002
I1000
tp137
a(I236
F0.050000000000000003
I1000
tp138
a(I237
F0.056000000000000001
I1000
tp139
a(I238
F0.044999999999999998
I1000
tp140
a(I239
F0.067000000000000004
I1000
tp141
a(I240
F0.057000000000000002
I1000
tp142
a(I241
F0.057000000000000002
I1000
tp143
a(I242
F0.059999999999999998
I1000
tp144
a(I243
F0.060999999999999999
I1000
tp145
a(I244
F0.065000000000000002
I1000
tp146
a(I245
F0.055
I1000
tp147
a(I246
F0.066000000000000003
I1000
tp148
a(I247
F0.074999999999999997
I1000
tp149
a(I248
F0.083000000000000004
I1000
tp150
a(I249
F0.088999999999999996
I1000
tp151
a(I250
F0.086999999999999994
I1000
tp152
a(I251
F0.063
I1000
tp153
a(I252
F0.10000000000000001
I1000
tp154
a(I253
F0.091999999999999998
I1000
tp155
a(I254
F0.092999999999999999
I1000
tp156
a(I255
F0.085000000000000006
I1000
tp157
a(I256
F0.092999999999999999
I1000
tp158
a(I257
F0.080000000000000002
I1000
tp159
a(I258
F0.108
I1000
tp160
a(I259
F0.111
I1000
tp161
a(I260
F0.106
I1000
tp162
a(I261
F0.124
I1000
tp163
a(I262
F0.11899999999999999
I1000
tp164
a(I263
F0.122
I1000
tp165
a(I264
F0.13500000000000001
I1000
tp166
a(I265
F0.129
I1000
tp167
a(I266
F0.14199999999999999
I1000
tp168
a(I267
F0.11799999999999999
I1000
tp169
a(I268
F0.153
I1000
tp170
a(I269
F0.153
I1000
tp171
a(I270
F0.13800000000000001
I1000
tp172
a(I271
F0.154
I1000
tp173
a(I272
F0.16300000000000001
I1000
tp174
a(I273
F0.158
I1000
tp175
a(I274
F0.16800000000000001
I1000
tp176
a(I275
F0.16500000000000001
I1000
tp177
a(I276
F0.14699999999999999
I1000
tp178
a(I277
F0.16500000000000001
I1000
tp179
a(I278
F0.19
I1000
tp180
a(I279
F0.17699999999999999
I1000
tp181
a(I280
F0.20300000000000001
I1000
tp182
a(I281
F0.185
I1000
tp183
a(I282
F0.188
I1000
tp184
a(I283
F0.193
I1000
tp185
a(I284
F0.193
I1000
tp186
a(I285
F0.20100000000000001
I1000
tp187
a(I286
F0.22700000000000001
I1000
tp188
a(I287
F0.20599999999999999
I1000
tp189
a(I288
F0.219
I1000
tp190
a(I289
F0.21099999999999999
I1000
tp191
a(I290
F0.22700000000000001
I1000
tp192
a(I291
F0.214
I1000
tp193
a(I292
F0.24299999999999999
I1000
tp194
a(I293
F0.25700000000000001
I1000
tp195
a(I294
F0.245
I1000
tp196
a(I295
F0.26800000000000002
I1000
tp197
a(I296
F0.253
I1000
tp198
a(I297
F0.25700000000000001
I1000
tp199
a(I298
F0.26700000000000002
I1000
tp200
a(I299
F0.27200000000000002
I1000
tp201
a(I300
F0.27100000000000002
I1000
tp202
a(I301
F0.28399999999999997
I1000
tp203
a(I302
F0.308
I1000
tp204
a(I303
F0.30499999999999999
I1000
tp205
a(I304
F0.29599999999999999
I1000
tp206
a(I305
F0.30599999999999999
I1000
tp207
a(I306
F0.29799999999999999
I1000
tp208
a(I307
F0.32900000000000001
I1000
tp209
a(I308
F0.313
I1000
tp210
a(I309
F0.33000000000000002
I1000
tp211
a(I310
F0.33500000000000002
I1000
tp212
a(I311
F0.33600000000000002
I1000
tp213
a(I312
F0.34699999999999998
I1000
tp214
a(I313
F0.35399999999999998
I1000
tp215
a(I314
F0.36299999999999999
I1000
tp216
a(I315
F0.38200000000000001
I1000
tp217
a(I316
F0.371
I1000
tp218
a(I317
F0.377
I1000
tp219
a(I318
F0.34499999999999997
I1000
tp220
a(I319
F0.39100000000000001
I1000
tp221
a(I320
F0.38500000000000001
I1000
tp222
a(I321
F0.42199999999999999
I1000
tp223
a(I322
F0.40899999999999997
I1000
tp224
a(I323
F0.40100000000000002
I1000
tp225
a(I324
F0.40300000000000002
I1000
tp226
a(I325
F0.44
I1000
tp227
a(I326
F0.41299999999999998
I1000
tp228
a(I327
F0.40200000000000002
I1000
tp229
a(I328
F0.39300000000000002
I1000
tp230
a(I329
F0.441
I1000
tp231
a(I330
F0.45200000000000001
I1000
tp232
a(I331
F0.44
I1000
tp233
a(I332
F0.43099999999999999
I1000
tp234
a(I333
F0.42299999999999999
I1000
tp235
a(I334
F0.46899999999999997
I1000
tp236
a(I335
F0.47299999999999998
I1000
tp237
a(I336
F0.45700000000000002
I1000
tp238
a(I337
F0.46400000000000002
I1000
tp239
a(I338
F0.47199999999999998
I1000
tp240
a(I339
F0.43099999999999999
I1000
tp241
a(I340
F0.46700000000000003
I1000
tp242
a(I341
F0.505
I1000
tp243
a(I342
F0.49299999999999999
I1000
tp244
a(I343
F0.46600000000000003
I1000
tp245
a(I344
F0.50800000000000001
I1000
tp246
a(I345
F0.51900000000000002
I1000
tp247
a(I346
F0.51000000000000001
I1000
tp248
a(I347
F0.51600000000000001
I1000
tp249
a(I348
F0.52800000000000002
I1000
tp250
a(I349
F0.53400000000000003
I1000
tp251
a(I350
F0.51800000000000002
I1000
tp252
a(I351
F0.52600000000000002
I1000
tp253
a(I352
F0.54800000000000004
I1000
tp254
a(I353
F0.56000000000000005
I1000
tp255
a(I354
F0.54800000000000004
I1000
tp256
a(I355
F0.54400000000000004
I1000
tp257
a(I356
F0.53400000000000003
I1000
tp258
a(I357
F0.54900000000000004
I1000
tp259
a(I358
F0.57999999999999996
I1000
tp260
a(I359
F0.59899999999999998
I1000
tp261
a(I360
F0.59999999999999998
I1000
tp262
a(I361
F0.56699999999999995
I1000
tp263
a(I362
F0.58299999999999996
I1000
tp264
a(I363
F0.57699999999999996
I1000
tp265
a(I364
F0.60899999999999999
I1000
tp266
a(I365
F0.56299999999999994
I1000
tp267
a(I366
F0.59399999999999997
I1000
tp268
a(I367
F0.58399999999999996
I1000
tp269
a(I368
F0.59699999999999998
I1000
tp270
a(I369
F0.61799999999999999
I1000
tp271
a(I370
F0.60099999999999998
I1000
tp272
a(I371
F0.622
I1000
tp273
a(I372
F0.61899999999999999
I1000
tp274
a(I373
F0.61699999999999999
I1000
tp275
a(I374
F0.63300000000000001
I1000
tp276
a(I375
F0.64600000000000002
I1000
tp277
a(I376
F0.65100000000000002
I1000
tp278
a(I377
F0.622
I1000
tp279
a(I378
F0.64100000000000001
I1000
tp280
a(I379
F0.66200000000000003
I1000
tp281
a(I380
F0.627
I1000
tp282
a(I381
F0.65700000000000003
I1000
tp283
a(I382
F0.68300000000000005
I1000
tp284
a(I383
F0.65100000000000002
I1000
tp285
a(I384
F0.65600000000000003
I1000
tp286
a(I385
F0.68100000000000005
I1000
tp287
a(I386
F0.68100000000000005
I1000
tp288
a(I387
F0.67800000000000005
I1000
tp289
a(I388
F0.66300000000000003
I1000
tp290
a(I389
F0.68300000000000005
I1000
tp291
a(I390
F0.69399999999999995
I1000
tp292
a(I391
F0.68000000000000005
I1000
tp293
a(I392
F0.68899999999999995
I1000
tp294
a(I393
F0.70799999999999996
I1000
tp295
a(I394
F0.68799999999999994
I1000
tp296
a(I395
F0.70399999999999996
I1000
tp297
a(I396
F0.71399999999999997
I1000
tp298
a(I397
F0.70799999999999996
I1000
tp299
a(I398
F0.69999999999999996
I1000
tp300
a(I399
F0.74399999999999999
I1000
tp301
a(I400
F0.70999999999999996
I1000
tp302
a(I401
F0.72399999999999998
I1000
tp303
a(I402
F0.72199999999999998
I1000
tp304
a(I403
F0.72699999999999998
I1000
tp305
a(I404
F0.73199999999999998
I1000
tp306
a(I405
F0.72999999999999998
I1000
tp307
a(I406
F0.72099999999999997
I1000
tp308
a(I407
F0.76200000000000001
I1000
tp309
a(I408
F0.71699999999999997
I1000
tp310
a(I409
F0.754
I1000
tp311
a(I410
F0.72999999999999998
I1000
tp312
a(I411
F0.748
I1000
tp313
a(I412
F0.77800000000000002
I1000
tp314
a(I413
F0.75800000000000001
I1000
tp315
a(I414
F0.77600000000000002
I1000
tp316
a(I415
F0.77200000000000002
I1000
tp317
a(I416
F0.77000000000000002
I1000
tp318
a(I417
F0.78800000000000003
I1000
tp319
a(I418
F0.79100000000000004
I1000
tp320
a(I419
F0.78000000000000003
I1000
tp321
a(I420
F0.78400000000000003
I1000
tp322
a(I421
F0.81100000000000005
I1000
tp323
a(I422
F0.78400000000000003
I1000
tp324
a(I423
F0.81100000000000005
I1000
tp325
a(I424
F0.79900000000000004
I1000
tp326
a(I425
F0.77900000000000003
I1000
tp327
a(I426
F0.78500000000000003
I1000
tp328
a(I427
F0.78400000000000003
I1000
tp329
a(I428
F0.79900000000000004
I1000
tp330
a(I429
F0.79600000000000004
I1000
tp331
a(I430
F0.80400000000000005
I1000
tp332
a(I431
F0.82099999999999995
I1000
tp333
a(I432
F0.80700000000000005
I1000
tp334
a(I433
F0.78600000000000003
I1000
tp335
a(I434
F0.79900000000000004
I1000
tp336
a(I435
F0.81499999999999995
I1000
tp337
a(I436
F0.81299999999999994
I1000
tp338
a(I437
F0.83599999999999997
I1000
tp339
a(I438
F0.80600000000000005
I1000
tp340
a(I439
F0.83099999999999996
I1000
tp341
a(I440
F0.81999999999999995
I1000
tp342
a(I441
F0.83099999999999996
I1000
tp343
a(I442
F0.83599999999999997
I1000
tp344
a(I443
F0.84499999999999997
I1000
tp345
a(I444
F0.84599999999999997
I1000
tp346
a(I445
F0.86699999999999999
I1000
tp347
a(I446
F0.84499999999999997
I1000
tp348
a(I447
F0.83799999999999997
I1000
tp349
a(I448
F0.83999999999999997
I1000
tp350
a(I449
F0.84499999999999997
I1000
tp351
a(I450
F0.85999999999999999
I1000
tp352
a(I451
F0.86799999999999999
I1000
tp353
a(I452
F0.87
I1000
tp354
a(I453
F0.84699999999999998
I1000
tp355
a(I454
F0.84299999999999997
I1000
tp356
a(I455
F0.85499999999999998
I1000
tp357
a(I456
F0.83999999999999997
I1000
tp358
a(I457
F0.86199999999999999
I1000
tp359
a(I458
F0.85699999999999998
I1000
tp360
a(I459
F0.84399999999999997
I1000
tp361
a(I460
F0.85199999999999998
I1000
tp362
a(I461
F0.86099999999999999
I1000
tp363
a(I462
F0.84999999999999998
I1000
tp364
a(I463
F0.85999999999999999
I1000
tp365
a(I464
F0.88400000000000001
I1000
tp366
a(I465
F0.88300000000000001
I1000
tp367
a(I466
F0.872
I1000
tp368
a(I467
F0.877
I1000
tp369
a(I468
F0.88900000000000001
I1000
tp370
a(I469
F0.873
I1000
tp371
a(I470
F0.89200000000000002
I1000
tp372
a(I471
F0.86899999999999999
I1000
tp373
a(I472
F0.89400000000000002
I1000
tp374
a(I473
F0.88500000000000001
I1000
tp375
a(I474
F0.90900000000000003
I1000
tp376
a(I475
F0.88200000000000001
I1000
tp377
a(I476
F0.91000000000000003
I1000
tp378
a(I477
F0.88100000000000001
I1000
tp379
a(I478
F0.90700000000000003
I1000
tp380
a(I479
F0.90300000000000002
I1000
tp381
a(I480
F0.89200000000000002
I1000
tp382
a(I481
F0.89600000000000002
I1000
tp383
a(I482
F0.90900000000000003
I1000
tp384
a(I483
F0.90700000000000003
I1000
tp385
a(I484
F0.89100000000000001
I1000
tp386
a(I485
F0.89700000000000002
I1000
tp387
a(I486
F0.90900000000000003
I1000
tp388
a(I487
F0.91300000000000003
I1000
tp389
a(I488
F0.90900000000000003
I1000
tp390
a(I489
F0.91500000000000004
I1000
tp391
a(I490
F0.91500000000000004
I1000
tp392
a(I491
F0.91200000000000003
I1000
tp393
a(I492
F0.92300000000000004
I1000
tp394
a(I493
F0.91000000000000003
I1000
tp395
a(I494
F0.92200000000000004
I1000
tp396
a(I495
F0.91700000000000004
I1000
tp397
a(I496
F0.91100000000000003
I1000
tp398
a(I497
F0.92000000000000004
I1000
tp399
a(I498
F0.92000000000000004
I1000
tp400
a(I499
F0.92000000000000004
I1000
tp401
a(I500
F0.93500000000000005
I1000
tp402
a(I501
F0.91900000000000004
I1000
tp403
a(I502
F0.92200000000000004
I1000
tp404
a(I503
F0.93000000000000005
I1000
tp405
a(I504
F0.93000000000000005
I1000
tp406
a(I505
F0.92600000000000005
I1000
tp407
a(I506
F0.92400000000000004
I1000
tp408
a(I507
F0.92700000000000005
I1000
tp409
a(I508
F0.93000000000000005
I1000
tp410
a(I509
F0.93000000000000005
I1000
tp411
a(I510
F0.93200000000000005
I1000
tp412
a(I511
F0.93899999999999995
I1000
tp413
a(I512
F0.94599999999999995
I1000
tp414
a(I513
F0.92600000000000005
I1000
tp415
a(I514
F0.93899999999999995
I1000
tp416
a(I515
F0.92200000000000004
I1000
tp417
a(I516
F0.93700000000000006
I1000
tp418
a(I517
F0.93000000000000005
I1000
tp419
a(I518
F0.93300000000000005
I1000
tp420
a(I519
F0.93200000000000005
I1000
tp421
a(I520
F0.93500000000000005
I1000
tp422
a(I521
F0.92100000000000004
I1000
tp423
a(I522
F0.93899999999999995
I1000
tp424
a(I523
F0.94999999999999996
I1000
tp425
a(I524
F0.94199999999999995
I1000
tp426
a(I525
F0.94699999999999995
I1000
tp427
a(I526
F0.94299999999999995
I1000
tp428
a(I527
F0.93999999999999995
I1000
tp429
a(I528
F0.92900000000000005
I1000
tp430
a(I529
F0.94099999999999995
I1000
tp431
a(I530
F0.94799999999999995
I1000
tp432
a(I531
F0.94999999999999996
I1000
tp433
a(I532
F0.95399999999999996
I1000
tp434
a(I533
F0.94599999999999995
I1000
tp435
a(I534
F0.94499999999999995
I1000
tp436
a(I535
F0.94399999999999995
I1000
tp437
a(I536
F0.94899999999999995
I1000
tp438
a(I537
F0.95799999999999996
I1000
tp439
a(I538
F0.95299999999999996
I1000
tp440
a(I539
F0.95599999999999996
I1000
tp441
a(I540
F0.95199999999999996
I1000
tp442
a(I541
F0.95799999999999996
I1000
tp443
a(I542
F0.94899999999999995
I1000
tp444
a(I543
F0.95899999999999996
I1000
tp445
a(I544
F0.93899999999999995
I1000
tp446
a(I545
F0.95199999999999996
I1000
tp447
a(I546
F0.95599999999999996
I1000
tp448
a(I547
F0.97399999999999998
I1000
tp449
a(I548
F0.96399999999999997
I1000
tp450
a(I549
F0.96599999999999997
I1000
tp451
a(I550
F0.95999999999999996
I1000
tp452
a(I551
F0.95399999999999996
I1000
tp453
a(I552
F0.95299999999999996
I1000
tp454
a(I553
F0.97099999999999997
I1000
tp455
a(I554
F0.96799999999999997
I1000
tp456
a(I555
F0.96499999999999997
I1000
tp457
a(I556
F0.96199999999999997
I1000
tp458
a(I557
F0.96099999999999997
I1000
tp459
a(I558
F0.95699999999999996
I1000
tp460
a(I559
F0.96499999999999997
I1000
tp461
a(I560
F0.96099999999999997
I1000
tp462
a(I561
F0.97399999999999998
I1000
tp463
a(I562
F0.96199999999999997
I1000
tp464
a(I563
F0.97599999999999998
I1000
tp465
a(I564
F0.96299999999999997
I1000
tp466
a(I565
F0.96299999999999997
I1000
tp467
a(I566
F0.97199999999999998
I1000
tp468
a(I567
F0.96699999999999997
I1000
tp469
a(I568
F0.96599999999999997
I1000
tp470
a(I569
F0.96399999999999997
I1000
tp471
a(I570
F0.95899999999999996
I1000
tp472
a(I571
F0.96999999999999997
I1000
tp473
a(I572
F0.98299999999999998
I1000
tp474
a(I573
F0.96499999999999997
I1000
tp475
a(I574
F0.96599999999999997
I1000
tp476
a(I575
F0.96899999999999997
I1000
tp477
a(I576
F0.96499999999999997
I1000
tp478
a(I577
F0.97499999999999998
I1000
tp479
a(I578
F0.96899999999999997
I1000
tp480
a(I579
F0.97799999999999998
I1000
tp481
a(I580
F0.97599999999999998
I1000
tp482
a(I581
F0.96499999999999997
I1000
tp483
a(I582
F0.96799999999999997
I1000
tp484
a(I583
F0.97899999999999998
I1000
tp485
a(I584
F0.96999999999999997
I1000
tp486
a(I585
F0.97199999999999998
I1000
tp487
a(I586
F0.96799999999999997
I1000
tp488
a(I587
F0.97699999999999998
I1000
tp489
a(I588
F0.97699999999999998
I1000
tp490
a(I589
F0.98599999999999999
I1000
tp491
a(I590
F0.97499999999999998
I1000
tp492
a(I591
F0.97099999999999997
I1000
tp493
a(I592
F0.98099999999999998
I1000
tp494
a(I593
F0.97499999999999998
I1000
tp495
a(I594
F0.97999999999999998
I1000
tp496
a(I595
F0.97899999999999998
I1000
tp497
a(I596
F0.97699999999999998
I1000
tp498
a(I597
F0.97399999999999998
I1000
tp499
a(I598
F0.97799999999999998
I1000
tp500
a(I599
F0.96699999999999997
I1000
tp501
a(I600
F0.97899999999999998
I1000
tp502
a(I601
F0.96799999999999997
I1000
tp503
a(I602
F0.98399999999999999
I1000
tp504
a(I603
F0.98399999999999999
I1000
tp505
a(I604
F0.97899999999999998
I1000
tp506
a(I605
F0.98099999999999998
I1000
tp507
a(I606
F0.97599999999999998
I1000
tp508
a(I607
F0.97899999999999998
I1000
tp509
a(I608
F0.97799999999999998
I1000
tp510
a(I609
F0.98399999999999999
I1000
tp511
a(I610
F0.98199999999999998
I1000
tp512
a(I611
F0.97599999999999998
I1000
tp513
a(I612
F0.97199999999999998
I1000
tp514
a(I613
F0.98199999999999998
I1000
tp515
a(I614
F0.99099999999999999
I1000
tp516
a(I615
F0.97799999999999998
I1000
tp517
a(I616
F0.98599999999999999
I1000
tp518
a(I617
F0.98399999999999999
I1000
tp519
a(I618
F0.98199999999999998
I1000
tp520
a(I619
F0.98199999999999998
I1000
tp521
a(I620
F0.98199999999999998
I1000
tp522
a(I621
F0.98599999999999999
I1000
tp523
a(I622
F0.98999999999999999
I1000
tp524
a(I623
F0.97799999999999998
I1000
tp525
a(I624
F0.98499999999999999
I1000
tp526
a(I625
F0.98899999999999999
I1000
tp527
a(I626
F0.98299999999999998
I1000
tp528
a(I627
F0.98499999999999999
I1000
tp529
a(I628
F0.97699999999999998
I1000
tp530
a(I629
F0.98299999999999998
I1000
tp531
a(I630
F0.98199999999999998
I1000
tp532
a(I631
F0.98299999999999998
I1000
tp533
a(I632
F0.98499999999999999
I1000
tp534
a(I633
F0.98299999999999998
I1000
tp535
a(I634
F0.98399999999999999
I1000
tp536
a(I635
F0.98899999999999999
I1000
tp537
a(I636
F0.99099999999999999
I1000
tp538
a(I637
F0.98599999999999999
I1000
tp539
a(I638
F0.98399999999999999
I1000
tp540
a(I639
F0.997
I1000
tp541
a(I640
F0.98399999999999999
I1000
tp542
a(I641
F0.98199999999999998
I1000
tp543
a(I642
F0.98499999999999999
I1000
tp544
a(I643
F0.98299999999999998
I1000
tp545
a(I644
F0.98199999999999998
I1000
tp546
a(I645
F0.98499999999999999
I1000
tp547
a(I646
F0.98799999999999999
I1000
tp548
a(I647
F0.98499999999999999
I1000
tp549
a(I648
F0.98399999999999999
I1000
tp550
a(I649
F0.99399999999999999
I1000
tp551
a(I650
F0.99399999999999999
I1000
tp552
a(I651
F0.98999999999999999
I1000
tp553
a(I652
F0.98599999999999999
I1000
tp554
a(I653
F0.98799999999999999
I1000
tp555
a(I654
F0.98299999999999998
I1000
tp556
a(I655
F0.98799999999999999
I1000
tp557
a(I656
F0.99199999999999999
I1000
tp558
a(I657
F0.98599999999999999
I1000
tp559
a(I658
F0.97799999999999998
I1000
tp560
a(I659
F0.99299999999999999
I1000
tp561
a(I660
F0.99099999999999999
I1000
tp562
a(I661
F0.98599999999999999
I1000
tp563
a(I662
F0.99399999999999999
I1000
tp564
a(I663
F0.98799999999999999
I1000
tp565
a(I664
F0.98599999999999999
I1000
tp566
a(I665
F0.98699999999999999
I1000
tp567
a(I666
F0.99299999999999999
I1000
tp568
a(I667
F0.99299999999999999
I1000
tp569
a(I668
F0.995
I1000
tp570
a(I669
F0.99299999999999999
I1000
tp571
a(I670
F0.99299999999999999
I1000
tp572
a(I671
F0.997
I1000
tp573
a(I672
F0.98899999999999999
I1000
tp574
a(I673
F0.99399999999999999
I1000
tp575
a(I674
F0.996
I1000
tp576
a(I675
F0.98899999999999999
I1000
tp577
a(I676
F0.995
I1000
tp578
a(I677
F0.99199999999999999
I1000
tp579
a(I678
F0.99299999999999999
I1000
tp580
a(I679
F0.99399999999999999
I1000
tp581
a(I680
F0.99199999999999999
I1000
tp582
a(I681
F0.98599999999999999
I1000
tp583
a(I682
F0.995
I1000
tp584
a(I683
F0.98799999999999999
I1000
tp585
a(I684
F0.98899999999999999
I1000
tp586
a(I685
F0.99399999999999999
I1000
tp587
a(I686
F0.99299999999999999
I1000
tp588
a(I687
F0.99399999999999999
I1000
tp589
a(I688
F0.99099999999999999
I1000
tp590
a(I689
F0.997
I1000
tp591
a(I690
F0.995
I1000
tp592
a(I691
F0.99199999999999999
I1000
tp593
a(I692
F0.99099999999999999
I1000
tp594
a(I693
F0.99399999999999999
I1000
tp595
a(I694
F0.99299999999999999
I1000
tp596
a(I695
F0.99399999999999999
I1000
tp597
a(I696
F0.99099999999999999
I1000
tp598
a(I697
F0.995
I1000
tp599
a(I698
F0.996
I1000
tp600
a(I699
F0.99099999999999999
I1000
tp601
a(I700
F0.995
I1000
tp602
a(I701
F0.996
I1000
tp603
a(I702
F0.995
I1000
tp604
a(I703
F0.99099999999999999
I1000
tp605
a(I704
F0.99399999999999999
I1000
tp606
a(I705
F0.999
I1000
tp607
a(I706
F0.99399999999999999
I1000
tp608
a(I707
F0.995
I1000
tp609
a(I708
F0.995
I1000
tp610
a(I709
F0.98999999999999999
I1000
tp611
a(I710
F0.997
I1000
tp612
a(I711
F0.995
I1000
tp613
a(I712
F0.997
I1000
tp614
a(I713
F0.997
I1000
tp615
a(I714
F0.999
I1000
tp616
a(I715
F0.99299999999999999
I1000
tp617
a(I716
F0.997
I1000
tp618
a(I717
F0.997
I1000
tp619
a(I718
F0.998
I1000
tp620
a(I719
F0.996
I1000
tp621
a(I720
F0.996
I1000
tp622
a(I721
F0.99399999999999999
I1000
tp623
a(I722
F0.99099999999999999
I1000
tp624
a(I723
F0.998
I1000
tp625
a(I724
F0.995
I1000
tp626
a(I725
F0.996
I1000
tp627
a(I726
F0.995
I1000
tp628
a(I727
F0.99299999999999999
I1000
tp629
a(I728
F0.996
I1000
tp630
a(I729
F0.996
I1000
tp631
a(I730
F0.995
I1000
tp632
a(I731
F0.997
I1000
tp633
a(I732
F0.996
I1000
tp634
a(I733
F0.997
I1000
tp635
a(I734
F0.99099999999999999
I1000
tp636
a(I735
F0.99399999999999999
I1000
tp637
a(I736
F0.996
I1000
tp638
a(I737
F0.999
I1000
tp639
a(I738
F0.997
I1000
tp640
a(I739
F0.997
I1000
tp641
a(I740
F0.999
I1000
tp642
a(I741
F0.997
I1000
tp643
a(I742
F0.999
I1000
tp644
a(I743
F0.998
I1000
tp645
a(I744
F0.995
I1000
tp646
a(I745
F0.99399999999999999
I1000
tp647
a(I746
F0.996
I1000
tp648
a(I747
F0.998
I1000
tp649
a(I748
F0.99299999999999999
I1000
tp650
a(I749
F0.998
I1000
tp651
a.