(lp1
(I1
F0
I500
tp2
a(I2
F0
I500
tp3
a(I3
F0
I500
tp4
a(I4
F0
I500
tp5
a(I5
F0
I500
tp6
a(I6
F0
I500
tp7
a(I7
F0
I500
tp8
a(I8
F0
I500
tp9
a(I9
F0
I500
tp10
a(I10
F0
I500
tp11
a(I11
F0
I500
tp12
a(I12
F0
I500
tp13
a(I13
F0
I500
tp14
a(I14
F0
I500
tp15
a(I15
F0
I500
tp16
a(I16
F0
I500
tp17
a(I17
F0
I500
tp18
a(I18
F0.002
I500
tp19
a(I19
F0.0040000000000000001
I500
tp20
a(I20
F0
I500
tp21
a(I21
F0.0040000000000000001
I500
tp22
a(I22
F0
I500
tp23
a(I23
F0.002
I500
tp24
a(I24
F0.0040000000000000001
I500
tp25
a(I25
F0.01
I500
tp26
a(I26
F0.0040000000000000001
I500
tp27
a(I27
F0.021999999999999999
I500
tp28
a(I28
F0.017999999999999999
I500
tp29
a(I29
F0.042000000000000003
I500
tp30
a(I30
F0.042000000000000003
I500
tp31
a(I31
F0.048000000000000001
I500
tp32
a(I32
F0.068000000000000005
I500
tp33
a(I33
F0.091999999999999998
I500
tp34
a(I34
F0.089999999999999997
I500
tp35
a(I35
F0.13800000000000001
I500
tp36
a(I36
F0.14199999999999999
I500
tp37
a(I37
F0.12
I500
tp38
a(I38
F0.17999999999999999
I500
tp39
a(I39
F0.17199999999999999
I500
tp40
a(I40
F0.218
I500
tp41
a(I41
F0.20200000000000001
I500
tp42
a(I42
F0.23799999999999999
I500
tp43
a(I43
F0.26200000000000001
I500
tp44
a(I44
F0.312
I500
tp45
a(I45
F0.27200000000000002
I500
tp46
a(I46
F0.34000000000000002
I500
tp47
a(I47
F0.372
I500
tp48
a(I48
F0.378
I500
tp49
a(I49
F0.39000000000000001
I500
tp50
a(I50
F0.47999999999999998
I500
tp51
a(I51
F0.44400000000000001
I500
tp52
a(I52
F0.44600000000000001
I500
tp53
a(I53
F0.44400000000000001
I500
tp54
a(I54
F0.49199999999999999
I500
tp55
a(I55
F0.52400000000000002
I500
tp56
a(I56
F0.55000000000000004
I1000
tp57
a(I57
F0.57499999999999996
I1000
tp58
a(I58
F0.58399999999999996
I1000
tp59
a(I59
F0.63900000000000001
I1000
tp60
a(I60
F0.58999999999999997
I1000
tp61
a(I61
F0.64500000000000002
I1000
tp62
a(I62
F0.67800000000000005
I1000
tp63
a(I63
F0.66600000000000004
I1000
tp64
a(I64
F0.68200000000000005
I1000
tp65
a(I65
F0.68400000000000005
I1000
tp66
a(I66
F0.67700000000000005
I1000
tp67
a(I67
F0.71699999999999997
I1000
tp68
a(I68
F0.76800000000000002
I1000
tp69
a(I69
F0.75549999999999995
I2000
tp70
a(I70
F0.753
I2000
tp71
a(I71
F0.77300000000000002
I2000
tp72
a(I72
F0.79900000000000004
I2000
tp73
a(I73
F0.80500000000000005
I2000
tp74
a(I74
F0.80049999999999999
I2000
tp75
a(I75
F0.81799999999999995
I2000
tp76
a(I76
F0.82899999999999996
I2000
tp77
a(I77
F0.83550000000000002
I2000
tp78
a(I78
F0.83999999999999997
I2000
tp79
a(I79
F0.84250000000000003
I2000
tp80
a(I80
F0.85299999999999998
I2000
tp81
a(I81
F0.84599999999999997
I2000
tp82
a(I82
F0.86299999999999999
I2000
tp83
a(I83
F0.87949999999999995
I2000
tp84
a(I84
F0.88400000000000001
I2000
tp85
a(I85
F0.877
I2000
tp86
a(I86
F0.88600000000000001
I2000
tp87
a(I87
F0.89449999999999996
I2000
tp88
a(I88
F0.90649999999999997
I2000
tp89
a(I89
F0.91749999999999998
I2000
tp90
a(I90
F0.90500000000000003
I2000
tp91
a(I91
F0.92549999999999999
I2000
tp92
a(I92
F0.93300000000000005
I2000
tp93
a(I93
F0.92200000000000004
I2000
tp94
a(I94
F0.93600000000000005
I2000
tp95
a(I95
F0.92800000000000005
I2000
tp96
a(I96
F0.93400000000000005
I2000
tp97
a(I97
F0.93799999999999994
I2000
tp98
a(I98
F0.9375
I2000
tp99
a(I99
F0.94650000000000001
I2000
tp100
a(I100
F0.94299999999999995
I2000
tp101
a(I101
F0.95099999999999996
I2000
tp102
a(I102
F0.95525000000000004
I4000
tp103
a(I103
F0.95350000000000001
I4000
tp104
a(I104
F0.96074999999999999
I4000
tp105
a(I105
F0.95950000000000002
I4000
tp106
a(I106
F0.96074999999999999
I4000
tp107
a(I107
F0.96050000000000002
I4000
tp108
a(I108
F0.96875
I4000
tp109
a(I109
F0.96499999999999997
I4000
tp110
a(I110
F0.97524999999999995
I4000
tp111
a(I111
F0.96999999999999997
I4000
tp112
a(I112
F0.97275
I4000
tp113
a(I113
F0.97150000000000003
I4000
tp114
a(I114
F0.97024999999999995
I4000
tp115
a(I115
F0.97324999999999995
I4000
tp116
a(I116
F0.97775000000000001
I4000
tp117
a(I117
F0.97875000000000001
I4000
tp118
a(I118
F0.97499999999999998
I4000
tp119
a(I119
F0.97650000000000003
I4000
tp120
a(I120
F0.97950000000000004
I4000
tp121
a(I121
F0.98199999999999998
I4000
tp122
a(I122
F0.98212500000000003
I8000
tp123
a(I123
F0.98250000000000004
I8000
tp124
a(I124
F0.98262499999999997
I8000
tp125
a(I125
F0.98399999999999999
I8000
tp126
a(I126
F0.98375000000000001
I8000
tp127
a(I127
F0.98724999999999996
I8000
tp128
a(I128
F0.98650000000000004
I8000
tp129
a(I129
F0.98750000000000004
I8000
tp130
a(I130
F0.989375
I8000
tp131
a(I131
F0.98862499999999998
I8000
tp132
a(I132
F0.99024999999999996
I8000
tp133
a(I133
F0.98975000000000002
I8000
tp134
a(I134
F0.99012500000000003
I8000
tp135
a(I135
F0.99087499999999995
I8000
tp136
a(I136
F0.98912500000000003
I8000
tp137
a(I137
F0.98987499999999995
I8000
tp138
a(I138
F0.99287499999999995
I8000
tp139
a(I139
F0.99250000000000005
I8000
tp140
a(I140
F0.99237500000000001
I8000
tp141
a.