(lp1
(I650
F0
I500
tp2
a(I651
F0
I500
tp3
a(I652
F0
I500
tp4
a(I653
F0
I500
tp5
a(I654
F0
I500
tp6
a(I655
F0.002
I500
tp7
a(I656
F0
I500
tp8
a(I657
F0
I500
tp9
a(I658
F0
I500
tp10
a(I659
F0
I500
tp11
a(I660
F0.0040000000000000001
I500
tp12
a(I661
F0
I500
tp13
a(I662
F0
I500
tp14
a(I663
F0
I500
tp15
a(I664
F0
I500
tp16
a(I665
F0
I500
tp17
a(I666
F0
I500
tp18
a(I667
F0
I500
tp19
a(I668
F0.002
I500
tp20
a(I669
F0
I500
tp21
a(I670
F0.002
I500
tp22
a(I671
F0.0040000000000000001
I500
tp23
a(I672
F0.0040000000000000001
I500
tp24
a(I673
F0.002
I500
tp25
a(I674
F0
I500
tp26
a(I675
F0
I500
tp27
a(I676
F0.0040000000000000001
I500
tp28
a(I677
F0
I500
tp29
a(I678
F0
I500
tp30
a(I679
F0
I500
tp31
a(I680
F0.002
I500
tp32
a(I681
F0.0040000000000000001
I500
tp33
a(I682
F0
I500
tp34
a(I683
F0.002
I500
tp35
a(I684
F0
I500
tp36
a(I685
F0.002
I500
tp37
a(I686
F0.002
I500
tp38
a(I687
F0.002
I500
tp39
a(I688
F0
I500
tp40
a(I689
F0
I500
tp41
a(I690
F0
I500
tp42
a(I691
F0.002
I500
tp43
a(I692
F0.0040000000000000001
I500
tp44
a(I693
F0
I500
tp45
a(I694
F0.0060000000000000001
I500
tp46
a(I695
F0.0040000000000000001
I500
tp47
a(I696
F0.0040000000000000001
I500
tp48
a(I697
F0.002
I500
tp49
a(I698
F0.0060000000000000001
I500
tp50
a(I699
F0.002
I500
tp51
a(I700
F0.0040000000000000001
I500
tp52
a(I701
F0.002
I500
tp53
a(I702
F0.002
I500
tp54
a(I703
F0.01
I500
tp55
a(I704
F0.0040000000000000001
I500
tp56
a(I705
F0.0040000000000000001
I500
tp57
a(I706
F0.012
I500
tp58
a(I707
F0.0060000000000000001
I500
tp59
a(I708
F0.0060000000000000001
I500
tp60
a(I709
F0.0040000000000000001
I500
tp61
a(I710
F0.01
I500
tp62
a(I711
F0.0080000000000000002
I500
tp63
a(I712
F0.0060000000000000001
I500
tp64
a(I713
F0.0060000000000000001
I500
tp65
a(I714
F0.0060000000000000001
I500
tp66
a(I715
F0.002
I500
tp67
a(I716
F0.01
I500
tp68
a(I717
F0.0060000000000000001
I500
tp69
a(I718
F0.0080000000000000002
I500
tp70
a(I719
F0.0060000000000000001
I500
tp71
a(I720
F0.012
I500
tp72
a(I721
F0.0060000000000000001
I500
tp73
a(I722
F0.0040000000000000001
I500
tp74
a(I723
F0.0060000000000000001
I500
tp75
a(I724
F0.01
I500
tp76
a(I725
F0.002
I500
tp77
a(I726
F0.01
I500
tp78
a(I727
F0.012
I500
tp79
a(I728
F0.0040000000000000001
I500
tp80
a(I729
F0.0060000000000000001
I500
tp81
a(I730
F0.0080000000000000002
I500
tp82
a(I731
F0.01
I500
tp83
a(I732
F0.012
I500
tp84
a(I733
F0.0080000000000000002
I500
tp85
a(I734
F0.0060000000000000001
I500
tp86
a(I735
F0.012
I500
tp87
a(I736
F0.012
I500
tp88
a(I737
F0.01
I500
tp89
a(I738
F0.012
I500
tp90
a(I739
F0.016
I500
tp91
a(I740
F0.0060000000000000001
I500
tp92
a(I741
F0.014
I500
tp93
a(I742
F0.0060000000000000001
I500
tp94
a(I743
F0.017999999999999999
I500
tp95
a(I744
F0.024
I500
tp96
a(I745
F0.016
I500
tp97
a(I746
F0.014
I500
tp98
a(I747
F0.0060000000000000001
I500
tp99
a(I748
F0.012
I500
tp100
a(I749
F0.01
I500
tp101
a(I750
F0.017999999999999999
I500
tp102
a(I751
F0.021999999999999999
I500
tp103
a(I752
F0.01
I500
tp104
a(I753
F0.02
I500
tp105
a(I754
F0.014
I500
tp106
a(I755
F0.016
I500
tp107
a(I756
F0.017999999999999999
I500
tp108
a(I757
F0.02
I500
tp109
a(I758
F0.021999999999999999
I500
tp110
a(I759
F0.012
I500
tp111
a(I760
F0.016
I500
tp112
a(I761
F0.017999999999999999
I500
tp113
a(I762
F0.024
I500
tp114
a(I763
F0.021999999999999999
I500
tp115
a(I764
F0.016
I500
tp116
a(I765
F0.014
I500
tp117
a(I766
F0.024
I500
tp118
a(I767
F0.014
I500
tp119
a(I768
F0.028000000000000001
I500
tp120
a(I769
F0.024
I500
tp121
a(I770
F0.032000000000000001
I500
tp122
a(I771
F0.017999999999999999
I500
tp123
a(I772
F0.025999999999999999
I500
tp124
a(I773
F0.028000000000000001
I500
tp125
a(I774
F0.029999999999999999
I500
tp126
a(I775
F0.025999999999999999
I500
tp127
a(I776
F0.021999999999999999
I500
tp128
a(I777
F0.028000000000000001
I500
tp129
a(I778
F0.021999999999999999
I500
tp130
a(I779
F0.035999999999999997
I500
tp131
a(I780
F0.016
I500
tp132
a(I781
F0.051999999999999998
I500
tp133
a(I782
F0.032000000000000001
I500
tp134
a(I783
F0.032000000000000001
I500
tp135
a(I784
F0.028000000000000001
I500
tp136
a(I785
F0.024
I500
tp137
a(I786
F0.025999999999999999
I500
tp138
a(I787
F0.017999999999999999
I500
tp139
a(I788
F0.024
I500
tp140
a(I789
F0.032000000000000001
I500
tp141
a(I790
F0.024
I500
tp142
a(I791
F0.032000000000000001
I500
tp143
a(I792
F0.032000000000000001
I500
tp144
a(I793
F0.037999999999999999
I500
tp145
a(I794
F0.042000000000000003
I500
tp146
a(I795
F0.024
I500
tp147
a(I796
F0.029999999999999999
I500
tp148
a(I797
F0.034000000000000002
I500
tp149
a(I798
F0.043999999999999997
I500
tp150
a(I799
F0.032000000000000001
I500
tp151
a(I800
F0.021999999999999999
I500
tp152
a(I801
F0.037999999999999999
I500
tp153
a(I802
F0.035999999999999997
I500
tp154
a(I803
F0.045999999999999999
I500
tp155
a(I804
F0.043999999999999997
I500
tp156
a(I805
F0.040000000000000001
I500
tp157
a(I806
F0.034000000000000002
I500
tp158
a(I807
F0.048000000000000001
I500
tp159
a(I808
F0.037999999999999999
I500
tp160
a(I809
F0.035999999999999997
I500
tp161
a(I810
F0.037999999999999999
I500
tp162
a(I811
F0.035999999999999997
I500
tp163
a(I812
F0.068000000000000005
I500
tp164
a(I813
F0.056000000000000001
I500
tp165
a(I814
F0.056000000000000001
I500
tp166
a(I815
F0.066000000000000003
I500
tp167
a(I816
F0.045999999999999999
I500
tp168
a(I817
F0.064000000000000001
I500
tp169
a(I818
F0.045999999999999999
I500
tp170
a(I819
F0.058000000000000003
I500
tp171
a(I820
F0.059999999999999998
I500
tp172
a(I821
F0.032000000000000001
I500
tp173
a(I822
F0.062
I500
tp174
a(I823
F0.059999999999999998
I500
tp175
a(I824
F0.053999999999999999
I500
tp176
a(I825
F0.040000000000000001
I500
tp177
a(I826
F0.064000000000000001
I500
tp178
a(I827
F0.068000000000000005
I500
tp179
a(I828
F0.050000000000000003
I500
tp180
a(I829
F0.058000000000000003
I500
tp181
a(I830
F0.056000000000000001
I500
tp182
a(I831
F0.058000000000000003
I500
tp183
a(I832
F0.073999999999999996
I500
tp184
a(I833
F0.053999999999999999
I500
tp185
a(I834
F0.062
I500
tp186
a(I835
F0.073999999999999996
I500
tp187
a(I836
F0.059999999999999998
I500
tp188
a(I837
F0.050000000000000003
I500
tp189
a(I838
F0.062
I500
tp190
a(I839
F0.051999999999999998
I500
tp191
a(I840
F0.070000000000000007
I500
tp192
a(I841
F0.066000000000000003
I500
tp193
a(I842
F0.053999999999999999
I500
tp194
a(I843
F0.066000000000000003
I500
tp195
a(I844
F0.094
I500
tp196
a(I845
F0.073999999999999996
I500
tp197
a(I846
F0.096000000000000002
I500
tp198
a(I847
F0.071999999999999995
I500
tp199
a(I848
F0.085999999999999993
I500
tp200
a(I849
F0.087999999999999995
I500
tp201
a(I850
F0.085999999999999993
I500
tp202
a(I851
F0.084000000000000005
I500
tp203
a(I852
F0.084000000000000005
I500
tp204
a(I853
F0.078
I500
tp205
a(I854
F0.087999999999999995
I500
tp206
a(I855
F0.087999999999999995
I500
tp207
a(I856
F0.11
I500
tp208
a(I857
F0.073999999999999996
I500
tp209
a(I858
F0.098000000000000004
I500
tp210
a(I859
F0.084000000000000005
I500
tp211
a(I860
F0.10199999999999999
I500
tp212
a(I861
F0.10000000000000001
I500
tp213
a(I862
F0.096000000000000002
I500
tp214
a(I863
F0.11799999999999999
I500
tp215
a(I864
F0.128
I500
tp216
a(I865
F0.087999999999999995
I500
tp217
a(I866
F0.10000000000000001
I500
tp218
a(I867
F0.112
I500
tp219
a(I868
F0.085999999999999993
I500
tp220
a(I869
F0.104
I500
tp221
a(I870
F0.11799999999999999
I500
tp222
a(I871
F0.089999999999999997
I500
tp223
a(I872
F0.073999999999999996
I500
tp224
a(I873
F0.106
I500
tp225
a(I874
F0.124
I500
tp226
a(I875
F0.096000000000000002
I500
tp227
a(I876
F0.128
I500
tp228
a(I877
F0.11
I500
tp229
a(I878
F0.13800000000000001
I500
tp230
a(I879
F0.114
I500
tp231
a(I880
F0.122
I500
tp232
a(I881
F0.14399999999999999
I500
tp233
a(I882
F0.11
I500
tp234
a(I883
F0.11
I500
tp235
a(I884
F0.126
I500
tp236
a(I885
F0.106
I500
tp237
a(I886
F0.11
I500
tp238
a(I887
F0.13600000000000001
I500
tp239
a(I888
F0.14000000000000001
I500
tp240
a(I889
F0.128
I500
tp241
a(I890
F0.124
I500
tp242
a(I891
F0.14799999999999999
I500
tp243
a(I892
F0.13
I500
tp244
a(I893
F0.11600000000000001
I500
tp245
a(I894
F0.14399999999999999
I500
tp246
a(I895
F0.13400000000000001
I500
tp247
a(I896
F0.112
I500
tp248
a(I897
F0.10000000000000001
I500
tp249
a(I898
F0.13800000000000001
I500
tp250
a(I899
F0.14999999999999999
I500
tp251
a(I900
F0.124
I500
tp252
a(I901
F0.14999999999999999
I500
tp253
a(I902
F0.16200000000000001
I500
tp254
a(I903
F0.14999999999999999
I500
tp255
a(I904
F0.13600000000000001
I500
tp256
a(I905
F0.114
I500
tp257
a(I906
F0.13800000000000001
I500
tp258
a(I907
F0.14399999999999999
I500
tp259
a(I908
F0.16
I500
tp260
a(I909
F0.17999999999999999
I500
tp261
a(I910
F0.14199999999999999
I500
tp262
a(I911
F0.16
I500
tp263
a(I912
F0.13600000000000001
I500
tp264
a(I913
F0.184
I500
tp265
a(I914
F0.156
I500
tp266
a(I915
F0.17000000000000001
I500
tp267
a(I916
F0.16200000000000001
I500
tp268
a(I917
F0.19400000000000001
I500
tp269
a(I918
F0.156
I500
tp270
a(I919
F0.16800000000000001
I500
tp271
a(I920
F0.16200000000000001
I500
tp272
a(I921
F0.17399999999999999
I500
tp273
a(I922
F0.192
I500
tp274
a(I923
F0.17199999999999999
I500
tp275
a(I924
F0.214
I500
tp276
a(I925
F0.188
I500
tp277
a(I926
F0.20799999999999999
I500
tp278
a(I927
F0.186
I500
tp279
a(I928
F0.16600000000000001
I500
tp280
a(I929
F0.17799999999999999
I500
tp281
a(I930
F0.19800000000000001
I500
tp282
a(I931
F0.20000000000000001
I500
tp283
a(I932
F0.17199999999999999
I500
tp284
a(I933
F0.188
I500
tp285
a(I934
F0.20000000000000001
I500
tp286
a(I935
F0.23599999999999999
I500
tp287
a(I936
F0.19800000000000001
I500
tp288
a(I937
F0.186
I500
tp289
a(I938
F0.23999999999999999
I500
tp290
a(I939
F0.224
I500
tp291
a(I940
F0.19600000000000001
I500
tp292
a(I941
F0.216
I500
tp293
a(I942
F0.21199999999999999
I500
tp294
a(I943
F0.214
I500
tp295
a(I944
F0.218
I500
tp296
a(I945
F0.214
I500
tp297
a(I946
F0.22
I500
tp298
a(I947
F0.214
I500
tp299
a(I948
F0.22800000000000001
I500
tp300
a(I949
F0.224
I500
tp301
a(I950
F0.224
I500
tp302
a(I951
F0.23000000000000001
I500
tp303
a(I952
F0.26600000000000001
I500
tp304
a(I953
F0.20000000000000001
I500
tp305
a(I954
F0.216
I500
tp306
a(I955
F0.23400000000000001
I500
tp307
a(I956
F0.26000000000000001
I500
tp308
a(I957
F0.25800000000000001
I500
tp309
a(I958
F0.20999999999999999
I500
tp310
a(I959
F0.24199999999999999
I500
tp311
a(I960
F0.252
I500
tp312
a(I961
F0.23200000000000001
I500
tp313
a(I962
F0.25800000000000001
I500
tp314
a(I963
F0.26000000000000001
I500
tp315
a(I964
F0.26600000000000001
I500
tp316
a(I965
F0.23799999999999999
I500
tp317
a(I966
F0.25
I500
tp318
a(I967
F0.23400000000000001
I500
tp319
a(I968
F0.29599999999999999
I500
tp320
a(I969
F0.254
I500
tp321
a(I970
F0.30599999999999999
I500
tp322
a(I971
F0.25800000000000001
I500
tp323
a(I972
F0.28999999999999998
I500
tp324
a(I973
F0.27600000000000002
I500
tp325
a(I974
F0.24399999999999999
I500
tp326
a(I975
F0.27200000000000002
I500
tp327
a(I976
F0.27200000000000002
I500
tp328
a(I977
F0.26200000000000001
I500
tp329
a(I978
F0.27600000000000002
I500
tp330
a(I979
F0.26000000000000001
I500
tp331
a(I980
F0.24199999999999999
I500
tp332
a(I981
F0.254
I500
tp333
a(I982
F0.308
I500
tp334
a(I983
F0.27800000000000002
I500
tp335
a(I984
F0.29599999999999999
I500
tp336
a(I985
F0.31
I500
tp337
a(I986
F0.31
I500
tp338
a(I987
F0.30599999999999999
I500
tp339
a(I988
F0.27000000000000002
I500
tp340
a(I989
F0.26200000000000001
I500
tp341
a(I990
F0.29199999999999998
I500
tp342
a(I991
F0.28999999999999998
I500
tp343
a(I992
F0.28799999999999998
I500
tp344
a(I993
F0.33800000000000002
I500
tp345
a(I994
F0.27800000000000002
I500
tp346
a(I995
F0.33800000000000002
I500
tp347
a(I996
F0.31
I500
tp348
a(I997
F0.32600000000000001
I500
tp349
a(I998
F0.33000000000000002
I500
tp350
a(I999
F0.318
I500
tp351
a(I1000
F0.33000000000000002
I500
tp352
a(I1001
F0.35199999999999998
I500
tp353
a(I1002
F0.37
I500
tp354
a(I1003
F0.29799999999999999
I500
tp355
a(I1004
F0.34200000000000003
I500
tp356
a(I1005
F0.35599999999999998
I500
tp357
a(I1006
F0.34999999999999998
I500
tp358
a(I1007
F0.32200000000000001
I500
tp359
a(I1008
F0.33400000000000002
I500
tp360
a(I1009
F0.33400000000000002
I500
tp361
a(I1010
F0.33400000000000002
I500
tp362
a(I1011
F0.312
I500
tp363
a(I1012
F0.34000000000000002
I500
tp364
a(I1013
F0.33200000000000002
I500
tp365
a(I1014
F0.34000000000000002
I500
tp366
a(I1015
F0.36199999999999999
I500
tp367
a(I1016
F0.34599999999999997
I500
tp368
a(I1017
F0.34799999999999998
I500
tp369
a(I1018
F0.33000000000000002
I500
tp370
a(I1019
F0.34200000000000003
I500
tp371
a(I1020
F0.32000000000000001
I500
tp372
a(I1021
F0.34799999999999998
I500
tp373
a(I1022
F0.36599999999999999
I500
tp374
a(I1023
F0.35799999999999998
I500
tp375
a(I1024
F0.38800000000000001
I500
tp376
a(I1025
F0.35799999999999998
I500
tp377
a(I1026
F0.37
I500
tp378
a(I1027
F0.39000000000000001
I500
tp379
a(I1028
F0.34999999999999998
I500
tp380
a(I1029
F0.38600000000000001
I500
tp381
a(I1030
F0.36799999999999999
I500
tp382
a(I1031
F0.40600000000000003
I500
tp383
a(I1032
F0.40799999999999997
I500
tp384
a(I1033
F0.38200000000000001
I500
tp385
a(I1034
F0.36399999999999999
I500
tp386
a(I1035
F0.35999999999999999
I500
tp387
a(I1036
F0.39000000000000001
I500
tp388
a(I1037
F0.37
I500
tp389
a(I1038
F0.37
I500
tp390
a(I1039
F0.41999999999999998
I500
tp391
a(I1040
F0.46200000000000002
I500
tp392
a(I1041
F0.39400000000000002
I500
tp393
a(I1042
F0.41999999999999998
I500
tp394
a(I1043
F0.40799999999999997
I500
tp395
a(I1044
F0.376
I500
tp396
a(I1045
F0.42199999999999999
I500
tp397
a(I1046
F0.39600000000000002
I500
tp398
a(I1047
F0.41599999999999998
I500
tp399
a(I1048
F0.432
I500
tp400
a(I1049
F0.40799999999999997
I500
tp401
a(I1050
F0.42999999999999999
I500
tp402
a(I1051
F0.39800000000000002
I500
tp403
a(I1052
F0.36599999999999999
I500
tp404
a(I1053
F0.436
I500
tp405
a(I1054
F0.41799999999999998
I500
tp406
a(I1055
F0.40600000000000003
I500
tp407
a(I1056
F0.46000000000000002
I500
tp408
a(I1057
F0.44600000000000001
I500
tp409
a(I1058
F0.47599999999999998
I500
tp410
a(I1059
F0.38800000000000001
I500
tp411
a(I1060
F0.44
I500
tp412
a(I1061
F0.40200000000000002
I500
tp413
a(I1062
F0.41999999999999998
I500
tp414
a(I1063
F0.40999999999999998
I500
tp415
a(I1064
F0.442
I500
tp416
a(I1065
F0.434
I500
tp417
a(I1066
F0.45400000000000001
I500
tp418
a(I1067
F0.46400000000000002
I500
tp419
a(I1068
F0.41599999999999998
I500
tp420
a(I1069
F0.442
I500
tp421
a(I1070
F0.42199999999999999
I500
tp422
a(I1071
F0.47799999999999998
I500
tp423
a(I1072
F0.46200000000000002
I500
tp424
a(I1073
F0.45200000000000001
I500
tp425
a(I1074
F0.47599999999999998
I500
tp426
a(I1075
F0.41799999999999998
I500
tp427
a(I1076
F0.5
I500
tp428
a(I1077
F0.46400000000000002
I500
tp429
a(I1078
F0.47399999999999998
I500
tp430
a(I1079
F0.46400000000000002
I500
tp431
a(I1080
F0.44
I500
tp432
a(I1081
F0.46200000000000002
I500
tp433
a(I1082
F0.498
I500
tp434
a(I1083
F0.47999999999999998
I500
tp435
a(I1084
F0.50800000000000001
I500
tp436
a(I1085
F0.45600000000000002
I1000
tp437
a(I1086
F0.47799999999999998
I1000
tp438
a(I1087
F0.50600000000000001
I1000
tp439
a(I1088
F0.47299999999999998
I1000
tp440
a(I1089
F0.501
I1000
tp441
a(I1090
F0.47299999999999998
I1000
tp442
a(I1091
F0.49399999999999999
I1000
tp443
a(I1092
F0.46999999999999997
I1000
tp444
a(I1093
F0.499
I1000
tp445
a(I1094
F0.50800000000000001
I1000
tp446
a(I1095
F0.50800000000000001
I1000
tp447
a(I1096
F0.47499999999999998
I1000
tp448
a(I1097
F0.502
I1000
tp449
a(I1098
F0.52100000000000002
I1000
tp450
a(I1099
F0.48999999999999999
I1000
tp451
a(I1100
F0.52900000000000003
I1000
tp452
a(I1101
F0.503
I1000
tp453
a(I1102
F0.51500000000000001
I1000
tp454
a(I1103
F0.54200000000000004
I1000
tp455
a(I1104
F0.504
I1000
tp456
a(I1105
F0.50900000000000001
I1000
tp457
a(I1106
F0.51600000000000001
I1000
tp458
a(I1107
F0.51800000000000002
I1000
tp459
a(I1108
F0.52600000000000002
I1000
tp460
a(I1109
F0.52500000000000002
I1000
tp461
a(I1110
F0.53500000000000003
I1000
tp462
a(I1111
F0.50600000000000001
I1000
tp463
a(I1112
F0.51000000000000001
I1000
tp464
a(I1113
F0.53600000000000003
I1000
tp465
a(I1114
F0.51200000000000001
I1000
tp466
a(I1115
F0.52100000000000002
I1000
tp467
a(I1116
F0.50900000000000001
I1000
tp468
a(I1117
F0.53800000000000003
I1000
tp469
a(I1118
F0.54300000000000004
I1000
tp470
a(I1119
F0.51500000000000001
I1000
tp471
a(I1120
F0.56200000000000006
I1000
tp472
a(I1121
F0.53100000000000003
I1000
tp473
a(I1122
F0.55700000000000005
I1000
tp474
a(I1123
F0.53500000000000003
I1000
tp475
a(I1124
F0.54800000000000004
I1000
tp476
a(I1125
F0.55200000000000005
I1000
tp477
a(I1126
F0.55400000000000005
I1000
tp478
a(I1127
F0.55300000000000005
I1000
tp479
a(I1128
F0.54000000000000004
I1000
tp480
a(I1129
F0.53900000000000003
I1000
tp481
a(I1130
F0.55100000000000005
I1000
tp482
a(I1131
F0.56699999999999995
I1000
tp483
a(I1132
F0.53700000000000003
I1000
tp484
a(I1133
F0.56699999999999995
I1000
tp485
a(I1134
F0.54200000000000004
I1000
tp486
a(I1135
F0.56999999999999995
I1000
tp487
a(I1136
F0.54000000000000004
I1000
tp488
a(I1137
F0.58599999999999997
I1000
tp489
a(I1138
F0.57599999999999996
I1000
tp490
a(I1139
F0.56499999999999995
I1000
tp491
a(I1140
F0.54200000000000004
I1000
tp492
a(I1141
F0.56399999999999995
I1000
tp493
a(I1142
F0.57099999999999995
I1000
tp494
a(I1143
F0.57599999999999996
I1000
tp495
a(I1144
F0.57899999999999996
I1000
tp496
a(I1145
F0.59299999999999997
I1000
tp497
a(I1146
F0.56599999999999995
I1000
tp498
a(I1147
F0.59699999999999998
I1000
tp499
a(I1148
F0.58099999999999996
I1000
tp500
a(I1149
F0.57599999999999996
I1000
tp501
a(I1150
F0.58799999999999997
I1000
tp502
a(I1151
F0.59999999999999998
I1000
tp503
a(I1152
F0.58599999999999997
I1000
tp504
a(I1153
F0.60199999999999998
I1000
tp505
a(I1154
F0.59399999999999997
I1000
tp506
a(I1155
F0.59599999999999997
I1000
tp507
a(I1156
F0.58099999999999996
I1000
tp508
a(I1157
F0.58899999999999997
I1000
tp509
a(I1158
F0.59799999999999998
I1000
tp510
a(I1159
F0.60299999999999998
I1000
tp511
a(I1160
F0.61199999999999999
I1000
tp512
a(I1161
F0.63
I1000
tp513
a(I1162
F0.60599999999999998
I1000
tp514
a(I1163
F0.59499999999999997
I1000
tp515
a(I1164
F0.59099999999999997
I1000
tp516
a(I1165
F0.61799999999999999
I1000
tp517
a(I1166
F0.59599999999999997
I1000
tp518
a(I1167
F0.63600000000000001
I1000
tp519
a(I1168
F0.61299999999999999
I1000
tp520
a(I1169
F0.63
I1000
tp521
a(I1170
F0.61799999999999999
I1000
tp522
a(I1171
F0.621
I1000
tp523
a(I1172
F0.623
I1000
tp524
a(I1173
F0.61599999999999999
I1000
tp525
a(I1174
F0.60199999999999998
I1000
tp526
a(I1175
F0.63800000000000001
I1000
tp527
a(I1176
F0.64900000000000002
I1000
tp528
a(I1177
F0.63
I1000
tp529
a(I1178
F0.629
I1000
tp530
a(I1179
F0.63600000000000001
I1000
tp531
a(I1180
F0.61699999999999999
I1000
tp532
a(I1181
F0.629
I1000
tp533
a(I1182
F0.626
I1000
tp534
a(I1183
F0.64500000000000002
I1000
tp535
a(I1184
F0.63600000000000001
I1000
tp536
a(I1185
F0.65100000000000002
I1000
tp537
a(I1186
F0.63300000000000001
I1000
tp538
a(I1187
F0.64700000000000002
I1000
tp539
a(I1188
F0.66700000000000004
I1000
tp540
a(I1189
F0.65000000000000002
I1000
tp541
a(I1190
F0.65000000000000002
I1000
tp542
a(I1191
F0.63500000000000001
I1000
tp543
a(I1192
F0.66300000000000003
I1000
tp544
a(I1193
F0.65900000000000003
I1000
tp545
a(I1194
F0.64700000000000002
I1000
tp546
a(I1195
F0.65800000000000003
I1000
tp547
a(I1196
F0.65900000000000003
I1000
tp548
a(I1197
F0.64700000000000002
I1000
tp549
a(I1198
F0.67000000000000004
I1000
tp550
a(I1199
F0.65900000000000003
I1000
tp551
a(I1200
F0.65000000000000002
I1000
tp552
a(I1201
F0.64300000000000002
I1000
tp553
a(I1202
F0.70299999999999996
I1000
tp554
a(I1203
F0.65600000000000003
I1000
tp555
a(I1204
F0.66100000000000003
I1000
tp556
a(I1205
F0.68999999999999995
I1000
tp557
a(I1206
F0.67500000000000004
I1000
tp558
a(I1207
F0.68999999999999995
I1000
tp559
a(I1208
F0.66600000000000004
I1000
tp560
a(I1209
F0.70399999999999996
I1000
tp561
a(I1210
F0.67300000000000004
I1000
tp562
a(I1211
F0.65800000000000003
I1000
tp563
a(I1212
F0.69299999999999995
I1000
tp564
a(I1213
F0.69899999999999995
I1000
tp565
a(I1214
F0.70299999999999996
I1000
tp566
a(I1215
F0.68400000000000005
I1000
tp567
a(I1216
F0.67700000000000005
I1000
tp568
a(I1217
F0.67700000000000005
I1000
tp569
a(I1218
F0.70599999999999996
I1000
tp570
a(I1219
F0.68999999999999995
I1000
tp571
a(I1220
F0.69899999999999995
I1000
tp572
a(I1221
F0.68700000000000006
I1000
tp573
a(I1222
F0.68799999999999994
I1000
tp574
a(I1223
F0.70399999999999996
I1000
tp575
a(I1224
F0.68700000000000006
I1000
tp576
a(I1225
F0.71999999999999997
I1000
tp577
a(I1226
F0.70899999999999996
I1000
tp578
a(I1227
F0.71499999999999997
I1000
tp579
a(I1228
F0.70499999999999996
I1000
tp580
a(I1229
F0.71399999999999997
I1000
tp581
a(I1230
F0.69699999999999995
I1000
tp582
a(I1231
F0.68700000000000006
I1000
tp583
a(I1232
F0.71299999999999997
I1000
tp584
a(I1233
F0.68600000000000005
I1000
tp585
a(I1234
F0.73899999999999999
I1000
tp586
a(I1235
F0.71799999999999997
I1000
tp587
a(I1236
F0.69699999999999995
I1000
tp588
a(I1237
F0.73299999999999998
I1000
tp589
a(I1238
F0.69899999999999995
I1000
tp590
a(I1239
F0.68999999999999995
I1000
tp591
a(I1240
F0.73299999999999998
I1000
tp592
a(I1241
F0.71799999999999997
I1000
tp593
a(I1242
F0.69899999999999995
I1000
tp594
a(I1243
F0.73699999999999999
I1000
tp595
a(I1244
F0.753
I1000
tp596
a(I1245
F0.69799999999999995
I2000
tp597
a(I1246
F0.73199999999999998
I2000
tp598
a(I1247
F0.72050000000000003
I2000
tp599
a(I1248
F0.72999999999999998
I2000
tp600
a(I1249
F0.74399999999999999
I2000
tp601
a(I1250
F0.73850000000000005
I2000
tp602
a(I1251
F0.72099999999999997
I2000
tp603
a(I1252
F0.72799999999999998
I2000
tp604
a(I1253
F0.72050000000000003
I2000
tp605
a(I1254
F0.72850000000000004
I2000
tp606
a(I1255
F0.73399999999999999
I2000
tp607
a(I1256
F0.71999999999999997
I2000
tp608
a(I1257
F0.73350000000000004
I2000
tp609
a(I1258
F0.74450000000000005
I2000
tp610
a(I1259
F0.74050000000000005
I2000
tp611
a(I1260
F0.73999999999999999
I2000
tp612
a(I1261
F0.74650000000000005
I2000
tp613
a(I1262
F0.72499999999999998
I2000
tp614
a(I1263
F0.74350000000000005
I2000
tp615
a(I1264
F0.73199999999999998
I2000
tp616
a(I1265
F0.75649999999999995
I2000
tp617
a(I1266
F0.74150000000000005
I2000
tp618
a(I1267
F0.75349999999999995
I2000
tp619
a(I1268
F0.75949999999999995
I2000
tp620
a(I1269
F0.76149999999999995
I2000
tp621
a(I1270
F0.75600000000000001
I2000
tp622
a(I1271
F0.74250000000000005
I2000
tp623
a(I1272
F0.75600000000000001
I2000
tp624
a(I1273
F0.74150000000000005
I2000
tp625
a(I1274
F0.75449999999999995
I2000
tp626
a(I1275
F0.749
I2000
tp627
a(I1276
F0.76749999999999996
I2000
tp628
a(I1277
F0.77200000000000002
I2000
tp629
a(I1278
F0.76049999999999995
I2000
tp630
a(I1279
F0.77500000000000002
I2000
tp631
a(I1280
F0.75649999999999995
I2000
tp632
a(I1281
F0.77200000000000002
I2000
tp633
a(I1282
F0.77600000000000002
I2000
tp634
a(I1283
F0.77300000000000002
I2000
tp635
a(I1284
F0.77649999999999997
I2000
tp636
a(I1285
F0.76949999999999996
I2000
tp637
a(I1286
F0.76349999999999996
I2000
tp638
a(I1287
F0.77400000000000002
I2000
tp639
a(I1288
F0.76600000000000001
I2000
tp640
a(I1289
F0.77000000000000002
I2000
tp641
a(I1290
F0.76449999999999996
I2000
tp642
a(I1291
F0.77600000000000002
I2000
tp643
a(I1292
F0.77100000000000002
I2000
tp644
a(I1293
F0.78849999999999998
I2000
tp645
a(I1294
F0.77700000000000002
I2000
tp646
a(I1295
F0.77300000000000002
I2000
tp647
a(I1296
F0.77300000000000002
I2000
tp648
a(I1297
F0.78349999999999997
I2000
tp649
a(I1298
F0.77400000000000002
I2000
tp650
a(I1299
F0.79200000000000004
I2000
tp651
a(I1300
F0.77900000000000003
I2000
tp652
a(I1301
F0.77600000000000002
I2000
tp653
a(I1302
F0.78449999999999998
I2000
tp654
a(I1303
F0.77049999999999996
I2000
tp655
a(I1304
F0.80249999999999999
I2000
tp656
a(I1305
F0.80000000000000004
I2000
tp657
a(I1306
F0.79949999999999999
I2000
tp658
a(I1307
F0.80600000000000005
I2000
tp659
a(I1308
F0.79149999999999998
I2000
tp660
a(I1309
F0.79100000000000004
I2000
tp661
a(I1310
F0.79049999999999998
I2000
tp662
a(I1311
F0.78949999999999998
I2000
tp663
a(I1312
F0.78700000000000003
I2000
tp664
a(I1313
F0.78849999999999998
I2000
tp665
a(I1314
F0.78149999999999997
I2000
tp666
a(I1315
F0.79249999999999998
I2000
tp667
a(I1316
F0.79549999999999998
I2000
tp668
a(I1317
F0.80100000000000005
I2000
tp669
a(I1318
F0.78300000000000003
I2000
tp670
a(I1319
F0.80800000000000005
I2000
tp671
a(I1320
F0.79800000000000004
I2000
tp672
a(I1321
F0.80200000000000005
I2000
tp673
a(I1322
F0.80600000000000005
I2000
tp674
a(I1323
F0.79349999999999998
I2000
tp675
a(I1324
F0.78600000000000003
I2000
tp676
a(I1325
F0.8075
I2000
tp677
a(I1326
F0.80200000000000005
I2000
tp678
a(I1327
F0.80100000000000005
I2000
tp679
a(I1328
F0.81999999999999995
I2000
tp680
a(I1329
F0.80649999999999999
I2000
tp681
a(I1330
F0.8125
I2000
tp682
a(I1331
F0.8085
I2000
tp683
a(I1332
F0.80649999999999999
I2000
tp684
a(I1333
F0.81499999999999995
I2000
tp685
a(I1334
F0.80200000000000005
I2000
tp686
a(I1335
F0.80300000000000005
I2000
tp687
a(I1336
F0.82499999999999996
I2000
tp688
a(I1337
F0.82199999999999995
I2000
tp689
a(I1338
F0.8105
I2000
tp690
a(I1339
F0.79900000000000004
I2000
tp691
a(I1340
F0.84350000000000003
I2000
tp692
a(I1341
F0.83099999999999996
I2000
tp693
a(I1342
F0.82350000000000001
I2000
tp694
a(I1343
F0.82699999999999996
I2000
tp695
a(I1344
F0.81899999999999995
I2000
tp696
a(I1345
F0.81299999999999994
I2000
tp697
a(I1346
F0.81850000000000001
I2000
tp698
a(I1347
F0.84099999999999997
I2000
tp699
a(I1348
F0.82099999999999995
I2000
tp700
a(I1349
F0.82050000000000001
I2000
tp701
a(I1350
F0.82350000000000001
I2000
tp702
a(I1351
F0.83050000000000002
I2000
tp703
a(I1352
F0.83499999999999996
I2000
tp704
a(I1353
F0.81399999999999995
I2000
tp705
a(I1354
F0.83050000000000002
I2000
tp706
a(I1355
F0.84650000000000003
I2000
tp707
a(I1356
F0.84799999999999998
I2000
tp708
a(I1357
F0.83199999999999996
I2000
tp709
a(I1358
F0.83899999999999997
I2000
tp710
a(I1359
F0.82550000000000001
I2000
tp711
a(I1360
F0.85099999999999998
I2000
tp712
a(I1361
F0.84199999999999997
I2000
tp713
a(I1362
F0.83599999999999997
I2000
tp714
a(I1363
F0.83999999999999997
I2000
tp715
a(I1364
F0.85399999999999998
I2000
tp716
a(I1365
F0.83999999999999997
I2000
tp717
a(I1366
F0.84850000000000003
I2000
tp718
a(I1367
F0.83750000000000002
I2000
tp719
a(I1368
F0.84850000000000003
I2000
tp720
a(I1369
F0.84599999999999997
I2000
tp721
a(I1370
F0.85399999999999998
I2000
tp722
a(I1371
F0.85299999999999998
I2000
tp723
a(I1372
F0.83599999999999997
I2000
tp724
a(I1373
F0.84199999999999997
I2000
tp725
a(I1374
F0.83499999999999996
I2000
tp726
a(I1375
F0.84150000000000003
I2000
tp727
a(I1376
F0.84750000000000003
I2000
tp728
a(I1377
F0.85399999999999998
I2000
tp729
a(I1378
F0.85299999999999998
I2000
tp730
a(I1379
F0.83650000000000002
I2000
tp731
a(I1380
F0.85550000000000004
I2000
tp732
a(I1381
F0.85499999999999998
I2000
tp733
a(I1382
F0.84650000000000003
I2000
tp734
a(I1383
F0.86150000000000004
I2000
tp735
a(I1384
F0.85999999999999999
I2000
tp736
a(I1385
F0.86599999999999999
I2000
tp737
a(I1386
F0.85699999999999998
I2000
tp738
a(I1387
F0.86299999999999999
I2000
tp739
a(I1388
F0.86250000000000004
I2000
tp740
a(I1389
F0.86699999999999999
I2000
tp741
a(I1390
F0.85499999999999998
I2000
tp742
a(I1391
F0.85850000000000004
I2000
tp743
a(I1392
F0.85999999999999999
I2000
tp744
a(I1393
F0.86350000000000005
I2000
tp745
a(I1394
F0.87
I2000
tp746
a(I1395
F0.85899999999999999
I2000
tp747
a(I1396
F0.85150000000000003
I2000
tp748
a(I1397
F0.85550000000000004
I2000
tp749
a(I1398
F0.85750000000000004
I2000
tp750
a(I1399
F0.86399999999999999
I2000
tp751
a(I1400
F0.86450000000000005
I2000
tp752
a(I1401
F0.85099999999999998
I2000
tp753
a(I1402
F0.86899999999999999
I2000
tp754
a(I1403
F0.86750000000000005
I2000
tp755
a(I1404
F0.86350000000000005
I2000
tp756
a(I1405
F0.85899999999999999
I2000
tp757
a(I1406
F0.875
I2000
tp758
a(I1407
F0.87450000000000006
I2000
tp759
a(I1408
F0.876
I2000
tp760
a(I1409
F0.86799999999999999
I2000
tp761
a(I1410
F0.86950000000000005
I2000
tp762
a(I1411
F0.88449999999999995
I2000
tp763
a(I1412
F0.87549999999999994
I2000
tp764
a(I1413
F0.86499999999999999
I2000
tp765
a(I1414
F0.876
I2000
tp766
a(I1415
F0.873
I2000
tp767
a(I1416
F0.88800000000000001
I2000
tp768
a(I1417
F0.86150000000000004
I2000
tp769
a(I1418
F0.86950000000000005
I2000
tp770
a(I1419
F0.878
I2000
tp771
a(I1420
F0.877
I2000
tp772
a(I1421
F0.86850000000000005
I2000
tp773
a(I1422
F0.86599999999999999
I2000
tp774
a(I1423
F0.878
I2000
tp775
a(I1424
F0.87549999999999994
I2000
tp776
a(I1425
F0.88249999999999995
I2000
tp777
a(I1426
F0.87849999999999995
I2000
tp778
a(I1427
F0.88449999999999995
I2000
tp779
a(I1428
F0.88049999999999995
I2000
tp780
a(I1429
F0.876
I2000
tp781
a(I1430
F0.87849999999999995
I2000
tp782
a(I1431
F0.87250000000000005
I2000
tp783
a(I1432
F0.88700000000000001
I2000
tp784
a(I1433
F0.88200000000000001
I2000
tp785
a(I1434
F0.88749999999999996
I2000
tp786
a(I1435
F0.87949999999999995
I2000
tp787
a(I1436
F0.90149999999999997
I2000
tp788
a(I1437
F0.878
I2000
tp789
a(I1438
F0.87749999999999995
I2000
tp790
a(I1439
F0.877
I2000
tp791
a(I1440
F0.872
I2000
tp792
a(I1441
F0.88649999999999995
I2000
tp793
a(I1442
F0.89100000000000001
I2000
tp794
a(I1443
F0.88500000000000001
I2000
tp795
a(I1444
F0.89000000000000001
I2000
tp796
a(I1445
F0.89449999999999996
I2000
tp797
a(I1446
F0.88449999999999995
I2000
tp798
a(I1447
F0.89049999999999996
I2000
tp799
a(I1448
F0.88449999999999995
I2000
tp800
a(I1449
F0.89649999999999996
I2000
tp801
a(I1450
F0.89400000000000002
I2000
tp802
a(I1451
F0.89149999999999996
I2000
tp803
a(I1452
F0.88500000000000001
I2000
tp804
a(I1453
F0.89449999999999996
I2000
tp805
a(I1454
F0.88700000000000001
I2000
tp806
a(I1455
F0.89749999999999996
I2000
tp807
a(I1456
F0.88449999999999995
I2000
tp808
a(I1457
F0.88849999999999996
I2000
tp809
a(I1458
F0.89400000000000002
I2000
tp810
a(I1459
F0.88749999999999996
I2000
tp811
a(I1460
F0.89449999999999996
I2000
tp812
a(I1461
F0.90700000000000003
I2000
tp813
a(I1462
F0.89900000000000002
I2000
tp814
a(I1463
F0.89700000000000002
I2000
tp815
a(I1464
F0.90449999999999997
I2000
tp816
a(I1465
F0.90049999999999997
I2000
tp817
a(I1466
F0.89949999999999997
I2000
tp818
a(I1467
F0.90149999999999997
I2000
tp819
a(I1468
F0.91400000000000003
I2000
tp820
a(I1469
F0.89900000000000002
I2000
tp821
a(I1470
F0.89700000000000002
I2000
tp822
a(I1471
F0.89300000000000002
I2000
tp823
a(I1472
F0.89949999999999997
I2000
tp824
a(I1473
F0.91149999999999998
I2000
tp825
a(I1474
F0.90149999999999997
I2000
tp826
a(I1475
F0.91049999999999998
I2000
tp827
a(I1476
F0.91949999999999998
I2000
tp828
a(I1477
F0.91049999999999998
I2000
tp829
a(I1478
F0.91800000000000004
I2000
tp830
a(I1479
F0.91800000000000004
I2000
tp831
a(I1480
F0.90549999999999997
I2000
tp832
a(I1481
F0.90400000000000003
I2000
tp833
a(I1482
F0.91100000000000003
I2000
tp834
a(I1483
F0.91400000000000003
I2000
tp835
a(I1484
F0.90700000000000003
I2000
tp836
a(I1485
F0.90049999999999997
I2000
tp837
a(I1486
F0.91800000000000004
I2000
tp838
a(I1487
F0.91049999999999998
I2000
tp839
a(I1488
F0.92200000000000004
I2000
tp840
a(I1489
F0.90700000000000003
I2000
tp841
a(I1490
F0.90649999999999997
I2000
tp842
a(I1491
F0.90649999999999997
I2000
tp843
a(I1492
F0.90300000000000002
I2000
tp844
a(I1493
F0.90100000000000002
I2000
tp845
a(I1494
F0.90349999999999997
I2000
tp846
a(I1495
F0.90900000000000003
I2000
tp847
a(I1496
F0.92200000000000004
I2000
tp848
a(I1497
F0.91700000000000004
I2000
tp849
a(I1498
F0.91700000000000004
I2000
tp850
a(I1499
F0.92200000000000004
I2000
tp851
a(I1500
F0.91549999999999998
I2000
tp852
a(I1501
F0.91500000000000004
I2000
tp853
a(I1502
F0.93200000000000005
I2000
tp854
a(I1503
F0.92200000000000004
I2000
tp855
a(I1504
F0.92100000000000004
I2000
tp856
a(I1505
F0.92549999999999999
I2000
tp857
a(I1506
F0.92600000000000005
I2000
tp858
a(I1507
F0.91749999999999998
I2000
tp859
a(I1508
F0.92549999999999999
I2000
tp860
a(I1509
F0.92149999999999999
I2000
tp861
a(I1510
F0.91849999999999998
I2000
tp862
a(I1511
F0.91649999999999998
I2000
tp863
a(I1512
F0.91700000000000004
I2000
tp864
a(I1513
F0.92600000000000005
I2000
tp865
a(I1514
F0.92100000000000004
I2000
tp866
a(I1515
F0.92100000000000004
I2000
tp867
a(I1516
F0.92500000000000004
I2000
tp868
a(I1517
F0.92749999999999999
I2000
tp869
a(I1518
F0.91600000000000004
I2000
tp870
a(I1519
F0.92749999999999999
I2000
tp871
a(I1520
F0.91049999999999998
I2000
tp872
a(I1521
F0.92200000000000004
I2000
tp873
a(I1522
F0.92249999999999999
I2000
tp874
a(I1523
F0.92900000000000005
I2000
tp875
a(I1524
F0.92749999999999999
I2000
tp876
a(I1525
F0.92349999999999999
I2000
tp877
a(I1526
F0.92849999999999999
I2000
tp878
a(I1527
F0.91600000000000004
I2000
tp879
a(I1528
F0.91149999999999998
I2000
tp880
a(I1529
F0.92649999999999999
I2000
tp881
a(I1530
F0.92700000000000005
I2000
tp882
a(I1531
F0.93899999999999995
I2000
tp883
a(I1532
F0.93000000000000005
I2000
tp884
a(I1533
F0.92849999999999999
I2000
tp885
a(I1534
F0.93899999999999995
I2000
tp886
a(I1535
F0.9365
I2000
tp887
a(I1536
F0.92900000000000005
I2000
tp888
a(I1537
F0.92949999999999999
I2000
tp889
a(I1538
F0.93149999999999999
I2000
tp890
a(I1539
F0.9395
I2000
tp891
a(I1540
F0.92200000000000004
I2000
tp892
a(I1541
F0.9325
I2000
tp893
a(I1542
F0.93049999999999999
I2000
tp894
a(I1543
F0.92600000000000005
I2000
tp895
a(I1544
F0.92649999999999999
I2000
tp896
a(I1545
F0.92249999999999999
I2000
tp897
a(I1546
F0.92500000000000004
I2000
tp898
a(I1547
F0.9395
I2000
tp899
a(I1548
F0.9335
I2000
tp900
a(I1549
F0.92949999999999999
I2000
tp901
a(I1550
F0.93400000000000005
I2000
tp902
a(I1551
F0.9335
I2000
tp903
a(I1552
F0.93700000000000006
I2000
tp904
a(I1553
F0.94199999999999995
I2000
tp905
a(I1554
F0.9355
I2000
tp906
a(I1555
F0.9415
I2000
tp907
a(I1556
F0.94199999999999995
I2000
tp908
a(I1557
F0.93500000000000005
I2000
tp909
a(I1558
F0.9375
I2000
tp910
a(I1559
F0.93049999999999999
I2000
tp911
a(I1560
F0.94199999999999995
I2000
tp912
a(I1561
F0.9395
I2000
tp913
a(I1562
F0.93899999999999995
I2000
tp914
a(I1563
F0.94399999999999995
I2000
tp915
a(I1564
F0.9395
I2000
tp916
a(I1565
F0.92849999999999999
I2000
tp917
a(I1566
F0.93200000000000005
I2000
tp918
a(I1567
F0.94499999999999995
I2000
tp919
a(I1568
F0.9395
I2000
tp920
a(I1569
F0.9355
I2000
tp921
a(I1570
F0.93300000000000005
I2000
tp922
a(I1571
F0.93999999999999995
I2000
tp923
a(I1572
F0.94850000000000001
I2000
tp924
a(I1573
F0.95050000000000001
I2000
tp925
a(I1574
F0.94574999999999998
I4000
tp926
a(I1575
F0.93474999999999997
I4000
tp927
a(I1576
F0.94099999999999995
I4000
tp928
a(I1577
F0.94225000000000003
I4000
tp929
a(I1578
F0.94625000000000004
I4000
tp930
a(I1579
F0.94699999999999995
I4000
tp931
a(I1580
F0.93774999999999997
I4000
tp932
a(I1581
F0.93874999999999997
I4000
tp933
a(I1582
F0.93799999999999994
I4000
tp934
a(I1583
F0.94499999999999995
I4000
tp935
a(I1584
F0.94525000000000003
I4000
tp936
a(I1585
F0.95150000000000001
I4000
tp937
a(I1586
F0.94199999999999995
I4000
tp938
a(I1587
F0.93874999999999997
I4000
tp939
a(I1588
F0.94925000000000004
I4000
tp940
a(I1589
F0.94425000000000003
I4000
tp941
a(I1590
F0.94425000000000003
I4000
tp942
a(I1591
F0.93825000000000003
I4000
tp943
a(I1592
F0.95250000000000001
I4000
tp944
a(I1593
F0.94425000000000003
I4000
tp945
a(I1594
F0.94550000000000001
I4000
tp946
a(I1595
F0.94350000000000001
I4000
tp947
a(I1596
F0.94599999999999995
I4000
tp948
a(I1597
F0.94550000000000001
I4000
tp949
a(I1598
F0.95299999999999996
I4000
tp950
a(I1599
F0.94725000000000004
I4000
tp951
a(I1600
F0.94850000000000001
I4000
tp952
a(I1601
F0.94850000000000001
I4000
tp953
a(I1602
F0.94899999999999995
I4000
tp954
a(I1603
F0.94399999999999995
I4000
tp955
a(I1604
F0.94999999999999996
I4000
tp956
a(I1605
F0.95674999999999999
I4000
tp957
a(I1606
F0.95325000000000004
I4000
tp958
a(I1607
F0.95325000000000004
I4000
tp959
a(I1608
F0.94599999999999995
I4000
tp960
a(I1609
F0.95374999999999999
I4000
tp961
a(I1610
F0.95050000000000001
I4000
tp962
a(I1611
F0.94874999999999998
I4000
tp963
a(I1612
F0.95699999999999996
I4000
tp964
a(I1613
F0.95274999999999999
I4000
tp965
a(I1614
F0.95299999999999996
I4000
tp966
a(I1615
F0.95425000000000004
I4000
tp967
a(I1616
F0.95399999999999996
I4000
tp968
a(I1617
F0.95025000000000004
I4000
tp969
a(I1618
F0.95674999999999999
I4000
tp970
a(I1619
F0.95374999999999999
I4000
tp971
a(I1620
F0.95174999999999998
I4000
tp972
a(I1621
F0.95174999999999998
I4000
tp973
a(I1622
F0.95325000000000004
I4000
tp974
a(I1623
F0.95750000000000002
I4000
tp975
a(I1624
F0.95574999999999999
I4000
tp976
a(I1625
F0.95350000000000001
I4000
tp977
a(I1626
F0.95725000000000005
I4000
tp978
a(I1627
F0.95474999999999999
I4000
tp979
a(I1628
F0.95774999999999999
I4000
tp980
a(I1629
F0.95899999999999996
I4000
tp981
a(I1630
F0.95425000000000004
I4000
tp982
a(I1631
F0.95325000000000004
I4000
tp983
a(I1632
F0.95999999999999996
I4000
tp984
a(I1633
F0.95525000000000004
I4000
tp985
a(I1634
F0.95599999999999996
I4000
tp986
a(I1635
F0.95499999999999996
I4000
tp987
a(I1636
F0.95299999999999996
I4000
tp988
a(I1637
F0.95825000000000005
I4000
tp989
a(I1638
F0.95399999999999996
I4000
tp990
a(I1639
F0.95174999999999998
I4000
tp991
a(I1640
F0.95999999999999996
I4000
tp992
a(I1641
F0.95799999999999996
I4000
tp993
a(I1642
F0.96325000000000005
I4000
tp994
a(I1643
F0.96375
I4000
tp995
a(I1644
F0.95625000000000004
I4000
tp996
a(I1645
F0.96174999999999999
I4000
tp997
a(I1646
F0.96475
I4000
tp998
a(I1647
F0.95774999999999999
I4000
tp999
a(I1648
F0.96274999999999999
I4000
tp1000
a(I1649
F0.95899999999999996
I4000
tp1001
a(I1650
F0.96450000000000002
I4000
tp1002
a(I1651
F0.96099999999999997
I4000
tp1003
a(I1652
F0.96099999999999997
I4000
tp1004
a(I1653
F0.95899999999999996
I4000
tp1005
a(I1654
F0.96225000000000005
I4000
tp1006
a(I1655
F0.96025000000000005
I4000
tp1007
a(I1656
F0.96350000000000002
I4000
tp1008
a(I1657
F0.96150000000000002
I4000
tp1009
a(I1658
F0.96375
I4000
tp1010
a(I1659
F0.96325000000000005
I4000
tp1011
a(I1660
F0.95899999999999996
I4000
tp1012
a(I1661
F0.96350000000000002
I4000
tp1013
a(I1662
F0.96425000000000005
I4000
tp1014
a(I1663
F0.96274999999999999
I4000
tp1015
a(I1664
F0.96675
I4000
tp1016
a(I1665
F0.96225000000000005
I4000
tp1017
a(I1666
F0.96025000000000005
I4000
tp1018
a(I1667
F0.96525000000000005
I4000
tp1019
a(I1668
F0.96274999999999999
I4000
tp1020
a(I1669
F0.96750000000000003
I4000
tp1021
a(I1670
F0.95925000000000005
I4000
tp1022
a(I1671
F0.95825000000000005
I4000
tp1023
a(I1672
F0.96550000000000002
I4000
tp1024
a(I1673
F0.96299999999999997
I4000
tp1025
a(I1674
F0.96375
I4000
tp1026
a(I1675
F0.96625000000000005
I4000
tp1027
a(I1676
F0.96350000000000002
I4000
tp1028
a(I1677
F0.96475
I4000
tp1029
a(I1678
F0.96999999999999997
I4000
tp1030
a(I1679
F0.96675
I4000
tp1031
a(I1680
F0.96150000000000002
I4000
tp1032
a(I1681
F0.96499999999999997
I4000
tp1033
a(I1682
F0.95899999999999996
I4000
tp1034
a(I1683
F0.96799999999999997
I4000
tp1035
a(I1684
F0.96799999999999997
I4000
tp1036
a(I1685
F0.96199999999999997
I4000
tp1037
a(I1686
F0.96299999999999997
I4000
tp1038
a(I1687
F0.97050000000000003
I4000
tp1039
a(I1688
F0.96924999999999994
I4000
tp1040
a(I1689
F0.96775
I4000
tp1041
a(I1690
F0.96599999999999997
I4000
tp1042
a(I1691
F0.96399999999999997
I4000
tp1043
a(I1692
F0.96950000000000003
I4000
tp1044
a(I1693
F0.96825000000000006
I4000
tp1045
a(I1694
F0.96825000000000006
I4000
tp1046
a(I1695
F0.96850000000000003
I4000
tp1047
a(I1696
F0.96274999999999999
I4000
tp1048
a(I1697
F0.97099999999999997
I4000
tp1049
a(I1698
F0.97475000000000001
I4000
tp1050
a(I1699
F0.96899999999999997
I4000
tp1051
a(I1700
F0.97050000000000003
I4000
tp1052
a(I1701
F0.96725000000000005
I4000
tp1053
a(I1702
F0.97524999999999995
I4000
tp1054
a(I1703
F0.97224999999999995
I4000
tp1055
a(I1704
F0.96675
I4000
tp1056
a(I1705
F0.96775
I4000
tp1057
a(I1706
F0.97524999999999995
I4000
tp1058
a(I1707
F0.96950000000000003
I4000
tp1059
a(I1708
F0.96924999999999994
I4000
tp1060
a(I1709
F0.97024999999999995
I4000
tp1061
a(I1710
F0.96825000000000006
I4000
tp1062
a(I1711
F0.97650000000000003
I4000
tp1063
a(I1712
F0.96475
I4000
tp1064
a(I1713
F0.97475000000000001
I4000
tp1065
a(I1714
F0.96950000000000003
I4000
tp1066
a(I1715
F0.97099999999999997
I4000
tp1067
a(I1716
F0.96575
I4000
tp1068
a(I1717
F0.96775
I4000
tp1069
a(I1718
F0.97224999999999995
I4000
tp1070
a(I1719
F0.96750000000000003
I4000
tp1071
a(I1720
F0.96875
I4000
tp1072
a(I1721
F0.97075
I4000
tp1073
a(I1722
F0.97275
I4000
tp1074
a(I1723
F0.97250000000000003
I4000
tp1075
a(I1724
F0.97399999999999998
I4000
tp1076
a(I1725
F0.96825000000000006
I4000
tp1077
a(I1726
F0.97050000000000003
I4000
tp1078
a(I1727
F0.97299999999999998
I4000
tp1079
a(I1728
F0.97475000000000001
I4000
tp1080
a(I1729
F0.96850000000000003
I4000
tp1081
a(I1730
F0.97550000000000003
I4000
tp1082
a(I1731
F0.97175
I4000
tp1083
a(I1732
F0.97075
I4000
tp1084
a(I1733
F0.97375
I4000
tp1085
a(I1734
F0.97199999999999998
I4000
tp1086
a(I1735
F0.97475000000000001
I4000
tp1087
a(I1736
F0.96950000000000003
I4000
tp1088
a(I1737
F0.97750000000000004
I4000
tp1089
a(I1738
F0.97450000000000003
I4000
tp1090
a(I1739
F0.97499999999999998
I4000
tp1091
a(I1740
F0.97499999999999998
I4000
tp1092
a(I1741
F0.97899999999999998
I4000
tp1093
a(I1742
F0.97575000000000001
I4000
tp1094
a(I1743
F0.97675000000000001
I4000
tp1095
a(I1744
F0.97150000000000003
I4000
tp1096
a(I1745
F0.97224999999999995
I4000
tp1097
a(I1746
F0.97575000000000001
I4000
tp1098
a(I1747
F0.97699999999999998
I4000
tp1099
a(I1748
F0.97524999999999995
I4000
tp1100
a(I1749
F0.97450000000000003
I4000
tp1101
a(I1750
F0.97624999999999995
I4000
tp1102
a(I1751
F0.97724999999999995
I4000
tp1103
a(I1752
F0.97499999999999998
I4000
tp1104
a(I1753
F0.97599999999999998
I4000
tp1105
a(I1754
F0.97875000000000001
I4000
tp1106
a(I1755
F0.97399999999999998
I4000
tp1107
a(I1756
F0.97450000000000003
I4000
tp1108
a(I1757
F0.97750000000000004
I4000
tp1109
a(I1758
F0.97975000000000001
I4000
tp1110
a(I1759
F0.97424999999999995
I4000
tp1111
a(I1760
F0.97450000000000003
I4000
tp1112
a(I1761
F0.97824999999999995
I4000
tp1113
a(I1762
F0.97375
I4000
tp1114
a(I1763
F0.97875000000000001
I4000
tp1115
a(I1764
F0.98375000000000001
I4000
tp1116
a(I1765
F0.97912500000000002
I8000
tp1117
a(I1766
F0.98012500000000002
I8000
tp1118
a(I1767
F0.97950000000000004
I8000
tp1119
a(I1768
F0.97787500000000005
I8000
tp1120
a(I1769
F0.97887500000000005
I8000
tp1121
a(I1770
F0.97662499999999997
I8000
tp1122
a(I1771
F0.97624999999999995
I8000
tp1123
a(I1772
F0.97862499999999997
I8000
tp1124
a(I1773
F0.98075000000000001
I8000
tp1125
a(I1774
F0.97724999999999995
I8000
tp1126
a(I1775
F0.979375
I8000
tp1127
a(I1776
F0.97699999999999998
I8000
tp1128
a(I1777
F0.97887500000000005
I8000
tp1129
a(I1778
F0.98050000000000004
I8000
tp1130
a(I1779
F0.97699999999999998
I8000
tp1131
a(I1780
F0.97987500000000005
I8000
tp1132
a(I1781
F0.97699999999999998
I8000
tp1133
a(I1782
F0.97824999999999995
I8000
tp1134
a(I1783
F0.98012500000000002
I8000
tp1135
a(I1784
F0.980375
I8000
tp1136
a(I1785
F0.97787500000000005
I8000
tp1137
a(I1786
F0.97987500000000005
I8000
tp1138
a(I1787
F0.98062499999999997
I8000
tp1139
a(I1788
F0.97837499999999999
I8000
tp1140
a(I1789
F0.98075000000000001
I8000
tp1141
a(I1790
F0.97962499999999997
I8000
tp1142
a(I1791
F0.97624999999999995
I8000
tp1143
a(I1792
F0.98187500000000005
I8000
tp1144
a(I1793
F0.98087500000000005
I8000
tp1145
a(I1794
F0.97962499999999997
I8000
tp1146
a(I1795
F0.98099999999999998
I8000
tp1147
a(I1796
F0.97975000000000001
I8000
tp1148
a(I1797
F0.98075000000000001
I8000
tp1149
a(I1798
F0.98262499999999997
I8000
tp1150
a(I1799
F0.97824999999999995
I8000
tp1151
a(I1800
F0.98187500000000005
I8000
tp1152
a(I1801
F0.98175000000000001
I8000
tp1153
a(I1802
F0.98299999999999998
I8000
tp1154
a(I1803
F0.97824999999999995
I8000
tp1155
a(I1804
F0.97987500000000005
I8000
tp1156
a(I1805
F0.98150000000000004
I8000
tp1157
a(I1806
F0.98112500000000002
I8000
tp1158
a(I1807
F0.98312500000000003
I8000
tp1159
a(I1808
F0.980375
I8000
tp1160
a(I1809
F0.98350000000000004
I8000
tp1161
a(I1810
F0.97862499999999997
I8000
tp1162
a(I1811
F0.983375
I8000
tp1163
a(I1812
F0.98562499999999997
I8000
tp1164
a(I1813
F0.98175000000000001
I8000
tp1165
a(I1814
F0.98150000000000004
I8000
tp1166
a(I1815
F0.983375
I8000
tp1167
a(I1816
F0.98187500000000005
I8000
tp1168
a(I1817
F0.98262499999999997
I8000
tp1169
a(I1818
F0.98099999999999998
I8000
tp1170
a(I1819
F0.98187500000000005
I8000
tp1171
a(I1820
F0.98250000000000004
I8000
tp1172
a(I1821
F0.98387500000000006
I8000
tp1173
a(I1822
F0.984375
I8000
tp1174
a(I1823
F0.98162499999999997
I8000
tp1175
a(I1824
F0.98399999999999999
I8000
tp1176
a(I1825
F0.98324999999999996
I8000
tp1177
a(I1826
F0.984375
I8000
tp1178
a(I1827
F0.98350000000000004
I8000
tp1179
a(I1828
F0.98412500000000003
I8000
tp1180
a(I1829
F0.982375
I8000
tp1181
a(I1830
F0.98199999999999998
I8000
tp1182
a(I1831
F0.98299999999999998
I8000
tp1183
a(I1832
F0.98487499999999994
I8000
tp1184
a(I1833
F0.98524999999999996
I8000
tp1185
a(I1834
F0.98350000000000004
I8000
tp1186
a(I1835
F0.98524999999999996
I8000
tp1187
a(I1836
F0.98512500000000003
I8000
tp1188
a(I1837
F0.98562499999999997
I8000
tp1189
a(I1838
F0.98287500000000005
I8000
tp1190
a(I1839
F0.98412500000000003
I8000
tp1191
a(I1840
F0.98362499999999997
I8000
tp1192
a(I1841
F0.98487499999999994
I8000
tp1193
a(I1842
F0.98387500000000006
I8000
tp1194
a(I1843
F0.98350000000000004
I8000
tp1195
a(I1844
F0.98450000000000004
I8000
tp1196
a(I1845
F0.98624999999999996
I8000
tp1197
a(I1846
F0.98675000000000002
I8000
tp1198
a(I1847
F0.98362499999999997
I8000
tp1199
a(I1848
F0.98312500000000003
I8000
tp1200
a(I1849
F0.98575000000000002
I8000
tp1201
a(I1850
F0.98424999999999996
I8000
tp1202
a(I1851
F0.98275000000000001
I8000
tp1203
a(I1852
F0.98687499999999995
I8000
tp1204
a(I1853
F0.98512500000000003
I8000
tp1205
a(I1854
F0.98512500000000003
I8000
tp1206
a(I1855
F0.98587499999999995
I8000
tp1207
a(I1856
F0.98487499999999994
I8000
tp1208
a(I1857
F0.98662499999999997
I8000
tp1209
a(I1858
F0.98612500000000003
I8000
tp1210
a(I1859
F0.98499999999999999
I8000
tp1211
a(I1860
F0.98850000000000005
I8000
tp1212
a(I1861
F0.98762499999999998
I8000
tp1213
a(I1862
F0.98687499999999995
I8000
tp1214
a(I1863
F0.98587499999999995
I8000
tp1215
a(I1864
F0.98750000000000004
I8000
tp1216
a(I1865
F0.98624999999999996
I8000
tp1217
a(I1866
F0.98899999999999999
I8000
tp1218
a(I1867
F0.98587499999999995
I8000
tp1219
a(I1868
F0.98575000000000002
I8000
tp1220
a(I1869
F0.98487499999999994
I8000
tp1221
a(I1870
F0.98750000000000004
I8000
tp1222
a(I1871
F0.98399999999999999
I8000
tp1223
a(I1872
F0.98687499999999995
I8000
tp1224
a(I1873
F0.98812500000000003
I8000
tp1225
a(I1874
F0.98587499999999995
I8000
tp1226
a(I1875
F0.98824999999999996
I8000
tp1227
a(I1876
F0.98975000000000002
I8000
tp1228
a(I1877
F0.98775000000000002
I8000
tp1229
a(I1878
F0.98875000000000002
I8000
tp1230
a(I1879
F0.98650000000000004
I8000
tp1231
a(I1880
F0.98775000000000002
I8000
tp1232
a(I1881
F0.98787499999999995
I8000
tp1233
a(I1882
F0.987375
I8000
tp1234
a(I1883
F0.98812500000000003
I8000
tp1235
a(I1884
F0.98850000000000005
I8000
tp1236
a(I1885
F0.98675000000000002
I8000
tp1237
a(I1886
F0.98950000000000005
I8000
tp1238
a(I1887
F0.989375
I8000
tp1239
a(I1888
F0.98699999999999999
I8000
tp1240
a(I1889
F0.98824999999999996
I8000
tp1241
a(I1890
F0.98599999999999999
I8000
tp1242
a(I1891
F0.98787499999999995
I8000
tp1243
a(I1892
F0.98712500000000003
I8000
tp1244
a(I1893
F0.98799999999999999
I8000
tp1245
a(I1894
F0.98875000000000002
I8000
tp1246
a(I1895
F0.98675000000000002
I8000
tp1247
a(I1896
F0.98899999999999999
I8000
tp1248
a(I1897
F0.98824999999999996
I8000
tp1249
a(I1898
F0.98887499999999995
I8000
tp1250
a(I1899
F0.989375
I8000
tp1251
a(I1900
F0.985375
I8000
tp1252
a(I1901
F0.98862499999999998
I8000
tp1253
a(I1902
F0.99012500000000003
I8000
tp1254
a(I1903
F0.98999999999999999
I8000
tp1255
a(I1904
F0.98924999999999996
I8000
tp1256
a(I1905
F0.98962499999999998
I8000
tp1257
a(I1906
F0.98824999999999996
I8000
tp1258
a(I1907
F0.98712500000000003
I8000
tp1259
a(I1908
F0.98962499999999998
I8000
tp1260
a(I1909
F0.98912500000000003
I8000
tp1261
a(I1910
F0.989375
I8000
tp1262
a(I1911
F0.98887499999999995
I8000
tp1263
a(I1912
F0.987375
I8000
tp1264
a(I1913
F0.98887499999999995
I8000
tp1265
a(I1914
F0.98812500000000003
I8000
tp1266
a(I1915
F0.98875000000000002
I8000
tp1267
a(I1916
F0.98799999999999999
I8000
tp1268
a(I1917
F0.98912500000000003
I8000
tp1269
a(I1918
F0.99050000000000005
I8000
tp1270
a(I1919
F0.99137500000000001
I8000
tp1271
a(I1920
F0.98850000000000005
I8000
tp1272
a(I1921
F0.99037500000000001
I8000
tp1273
a(I1922
F0.98862499999999998
I8000
tp1274
a(I1923
F0.99124999999999996
I8000
tp1275
a(I1924
F0.98899999999999999
I8000
tp1276
a(I1925
F0.98875000000000002
I8000
tp1277
a(I1926
F0.99212500000000003
I8000
tp1278
a(I1927
F0.98912500000000003
I8000
tp1279
a(I1928
F0.98850000000000005
I8000
tp1280
a(I1929
F0.99112500000000003
I8000
tp1281
a(I1930
F0.98950000000000005
I8000
tp1282
a(I1931
F0.99099999999999999
I8000
tp1283
a(I1932
F0.989375
I8000
tp1284
a(I1933
F0.989375
I8000
tp1285
a(I1934
F0.99062499999999998
I8000
tp1286
a(I1935
F0.99050000000000005
I8000
tp1287
a(I1936
F0.989375
I8000
tp1288
a(I1937
F0.99237500000000001
I8000
tp1289
a(I1938
F0.99050000000000005
I8000
tp1290
a(I1939
F0.99062499999999998
I8000
tp1291
a.